SF:bindings/wasm/src/credential/credential.rs
FN:18,_RNvXs8_NtNtCskt00YjyhLiG_13identity_wasm10credential10credentialNtB5_20VerifiableCredentialNtNtCs4RZURTQcbNt_4core3fmt5Debug3fmt
FN:25,_RNvMsa_NtNtCskt00YjyhLiG_13identity_wasm10credential10credentialNtB5_20VerifiableCredential6extend
FN:61,_RNvMsa_NtNtCskt00YjyhLiG_13identity_wasm10credential10credentialNtB5_20VerifiableCredential5issue
FNDA:0,_RNvXs8_NtNtCskt00YjyhLiG_13identity_wasm10credential10credentialNtB5_20VerifiableCredentialNtNtCs4RZURTQcbNt_4core3fmt5Debug3fmt
FNDA:0,_RNvMsa_NtNtCskt00YjyhLiG_13identity_wasm10credential10credentialNtB5_20VerifiableCredential6extend
FNDA:0,_RNvMsa_NtNtCskt00YjyhLiG_13identity_wasm10credential10credentialNtB5_20VerifiableCredential5issue
FNF:3
FNH:0
DA:18,0
DA:19,0
DA:22,0
DA:25,0
DA:26,0
DA:28,0
DA:29,0
DA:30,0
DA:31,0
DA:32,0
DA:33,0
DA:34,0
DA:35,0
DA:36,0
DA:37,0
DA:38,0
DA:39,0
DA:41,0
DA:43,0
DA:44,0
DA:45,0
DA:48,0
DA:49,0
DA:51,0
DA:52,0
DA:53,0
DA:55,0
DA:56,0
DA:57,0
DA:58,0
DA:61,0
DA:62,0
DA:63,0
DA:64,0
DA:65,0
DA:66,0
DA:67,0
DA:68,0
DA:69,0
DA:71,0
DA:72,0
DA:73,0
DA:75,0
DA:76,0
DA:77,0
DA:79,0
DA:80,0
DA:81,0
DA:83,0
DA:84,0
BRF:0
BFH:0
LF:50
LH:0
end_of_record
SF:bindings/wasm/src/credential/presentation.rs
FN:14,_RNvXNtNtCskt00YjyhLiG_13identity_wasm10credential12presentationNtB2_22VerifiablePresentationNtNtCslJyejyMUgKL_12wasm_bindgen8describe12WasmDescribe8describe
FN:21,_RNvMsa_NtNtCskt00YjyhLiG_13identity_wasm10credential12presentationNtB5_22VerifiablePresentation3new
FNDA:0,_RNvXNtNtCskt00YjyhLiG_13identity_wasm10credential12presentationNtB2_22VerifiablePresentationNtNtCslJyejyMUgKL_12wasm_bindgen8describe12WasmDescribe8describe
FNDA:0,_RNvMsa_NtNtCskt00YjyhLiG_13identity_wasm10credential12presentationNtB5_22VerifiablePresentation3new
FNF:2
FNH:0
DA:14,0
DA:15,0
DA:18,0
DA:21,0
DA:22,0
DA:23,0
DA:24,0
DA:25,0
DA:26,0
DA:27,0
DA:28,0
DA:30,0
DA:32,0
DA:33,0
DA:34,0
DA:36,0
DA:37,0
DA:38,0
DA:40,0
DA:41,0
DA:42,0
DA:44,0
DA:45,0
BRF:0
BFH:0
LF:23
LH:0
end_of_record
SF:bindings/wasm/src/crypto/key_collection.rs
FN:18,_RNvXNvXNvNtNtCskt00YjyhLiG_13identity_wasm6crypto14key_collections1_1__NtB7_7KeyDataNtNtCsbmAr7Tf4vl1_5serde2de11Deserialize11deserializeNtB2_14___FieldVisitorNtB1m_7Visitor9expecting
FN:99,_RNvMs8_NtNtCskt00YjyhLiG_13identity_wasm6crypto14key_collectionNtB5_13KeyCollection7to_json
FN:84,_RNvMs8_NtNtCskt00YjyhLiG_13identity_wasm6crypto14key_collectionNtB5_13KeyCollection12merkle_proof
FN:121,_RNvMs8_NtNtCskt00YjyhLiG_13identity_wasm6crypto14key_collectionNtB5_13KeyCollection9from_json
FN:124,_RNCNvMs8_NtNtCskt00YjyhLiG_13identity_wasm6crypto14key_collectionNtB7_13KeyCollection9from_json0Bb_
FNDA:0,_RNvXNvXNvNtNtCskt00YjyhLiG_13identity_wasm6crypto14key_collections1_1__NtB7_7KeyDataNtNtCsbmAr7Tf4vl1_5serde2de11Deserialize11deserializeNtB2_14___FieldVisitorNtB1m_7Visitor9expecting
FNDA:0,_RNvMs8_NtNtCskt00YjyhLiG_13identity_wasm6crypto14key_collectionNtB5_13KeyCollection7to_json
FNDA:0,_RNvMs8_NtNtCskt00YjyhLiG_13identity_wasm6crypto14key_collectionNtB5_13KeyCollection12merkle_proof
FNDA:0,_RNvMs8_NtNtCskt00YjyhLiG_13identity_wasm6crypto14key_collectionNtB5_13KeyCollection9from_json
FNDA:0,_RNCNvMs8_NtNtCskt00YjyhLiG_13identity_wasm6crypto14key_collectionNtB7_13KeyCollection9from_json0Bb_
FNF:5
FNH:0
DA:18,0
DA:25,0
DA:34,0
DA:35,0
DA:38,0
DA:84,0
DA:85,0
DA:87,0
DA:88,0
DA:89,0
DA:92,0
DA:95,0
DA:99,0
DA:100,0
DA:101,0
DA:102,0
DA:103,0
DA:104,0
DA:105,0
DA:108,0
DA:109,0
DA:110,0
DA:111,0
DA:112,0
DA:113,0
DA:114,0
DA:115,0
DA:116,0
DA:117,0
DA:121,0
DA:122,0
DA:124,0
DA:125,0
DA:126,0
DA:128,0
DA:129,0
DA:130,0
DA:131,0
DA:132,0
DA:133,0
DA:134,0
BRF:0
BFH:0
LF:43
LH:0
end_of_record
SF:bindings/wasm/src/crypto/key_pair.rs
FN:14,_RNvXs_NtNtCskt00YjyhLiG_13identity_wasm6crypto8key_pairNtB4_7KeyPairNtNtNtCslJyejyMUgKL_12wasm_bindgen7convert6traits11IntoWasmAbi8into_abi
FN:39,_RNvMs8_NtNtCskt00YjyhLiG_13identity_wasm6crypto8key_pairNtB5_7KeyPair11from_base58
FN:72,_RNvMs8_NtNtCskt00YjyhLiG_13identity_wasm6crypto8key_pairNtB5_7KeyPair9from_json
FNDA:0,_RNvXs_NtNtCskt00YjyhLiG_13identity_wasm6crypto8key_pairNtB4_7KeyPairNtNtNtCslJyejyMUgKL_12wasm_bindgen7convert6traits11IntoWasmAbi8into_abi
FNDA:0,_RNvMs8_NtNtCskt00YjyhLiG_13identity_wasm6crypto8key_pairNtB5_7KeyPair11from_base58
FNDA:0,_RNvMs8_NtNtCskt00YjyhLiG_13identity_wasm6crypto8key_pairNtB5_7KeyPair9from_json
FNF:3
FNH:0
DA:14,0
DA:25,0
DA:29,0
DA:39,0
DA:40,0
DA:41,0
DA:43,0
DA:44,0
DA:72,0
DA:73,0
DA:75,0
DA:76,0
BRF:0
BFH:0
LF:12
LH:0
end_of_record
SF:bindings/wasm/src/crypto/key_type.rs
FN:8,_RNvXNtNtCskt00YjyhLiG_13identity_wasm6crypto8key_typeNtB2_7KeyTypeNtNtCs4RZURTQcbNt_4core7default7Default7default
FNDA:0,_RNvXNtNtCskt00YjyhLiG_13identity_wasm6crypto8key_typeNtB2_7KeyTypeNtNtCs4RZURTQcbNt_4core7default7Default7default
FNF:1
FNH:0
DA:8,0
DA:9,0
DA:16,0
DA:17,0
DA:18,0
BRF:0
BFH:0
LF:5
LH:0
end_of_record
SF:bindings/wasm/src/did.rs
FN:30,_RNvMsa_NtCskt00YjyhLiG_13identity_wasm3didNtB5_3DID11from_base58
FN:12,_RNvXs0_NtCskt00YjyhLiG_13identity_wasm3didNtB5_3DIDNtNtNtCslJyejyMUgKL_12wasm_bindgen7convert6traits11FromWasmAbi8from_abi
FNDA:0,_RNvMsa_NtCskt00YjyhLiG_13identity_wasm3didNtB5_3DID11from_base58
FNDA:0,_RNvXs0_NtCskt00YjyhLiG_13identity_wasm3didNtB5_3DIDNtNtNtCslJyejyMUgKL_12wasm_bindgen7convert6traits11FromWasmAbi8from_abi
FNF:2
FNH:0
DA:12,0
DA:13,0
DA:16,0
DA:30,0
DA:31,0
DA:32,0
DA:33,0
DA:34,0
DA:35,0
DA:36,0
BRF:0
BFH:0
LF:10
LH:0
end_of_record
SF:bindings/wasm/src/document.rs
FN:28,_RNvMsj_NtCskt00YjyhLiG_13identity_wasm8documentNtB5_8Document13insert_method
FN:157,_RNvMsj_NtCskt00YjyhLiG_13identity_wasm8documentNtB5_8Document9sign_data
FN:59,_RNvMsj_NtCskt00YjyhLiG_13identity_wasm8documentNtB5_8Document3new
FN:144,_RNvMsj_NtCskt00YjyhLiG_13identity_wasm8documentNtB5_8Document17sign_presentation
FN:136,_RNvMsj_NtCskt00YjyhLiG_13identity_wasm8documentNtB5_8Document15sign_credential
FN:96,_RNvMsj_NtCskt00YjyhLiG_13identity_wasm8documentNtB5_8Document5proof
FN:258,_RNvMsj_NtCskt00YjyhLiG_13identity_wasm8documentNtB5_8Document5merge
FN:217,_RNvMsj_NtCskt00YjyhLiG_13identity_wasm8documentNtB5_8Document11verify_data
FN:225,_RNvMsj_NtCskt00YjyhLiG_13identity_wasm8documentNtB5_8Document11resolve_key
FN:232,_RNvMsj_NtCskt00YjyhLiG_13identity_wasm8documentNtB5_8Document17revoke_merkle_key
FN:248,_RNvMsj_NtCskt00YjyhLiG_13identity_wasm8documentNtB5_8Document4diff
FNDA:0,_RNvMsj_NtCskt00YjyhLiG_13identity_wasm8documentNtB5_8Document13insert_method
FNDA:0,_RNvMsj_NtCskt00YjyhLiG_13identity_wasm8documentNtB5_8Document9sign_data
FNDA:0,_RNvMsj_NtCskt00YjyhLiG_13identity_wasm8documentNtB5_8Document3new
FNDA:0,_RNvMsj_NtCskt00YjyhLiG_13identity_wasm8documentNtB5_8Document17sign_presentation
FNDA:0,_RNvMsj_NtCskt00YjyhLiG_13identity_wasm8documentNtB5_8Document15sign_credential
FNDA:0,_RNvMsj_NtCskt00YjyhLiG_13identity_wasm8documentNtB5_8Document5proof
FNDA:0,_RNvMsj_NtCskt00YjyhLiG_13identity_wasm8documentNtB5_8Document5merge
FNDA:0,_RNvMsj_NtCskt00YjyhLiG_13identity_wasm8documentNtB5_8Document11verify_data
FNDA:0,_RNvMsj_NtCskt00YjyhLiG_13identity_wasm8documentNtB5_8Document11resolve_key
FNDA:0,_RNvMsj_NtCskt00YjyhLiG_13identity_wasm8documentNtB5_8Document17revoke_merkle_key
FNDA:0,_RNvMsj_NtCskt00YjyhLiG_13identity_wasm8documentNtB5_8Document4diff
FNF:11
FNH:0
DA:28,0
DA:34,0
DA:50,0
DA:51,0
DA:54,0
DA:59,0
DA:60,0
DA:61,0
DA:62,0
DA:64,0
DA:65,0
DA:66,0
DA:67,0
DA:68,0
DA:96,0
DA:97,0
DA:98,0
DA:99,0
DA:101,0
DA:108,0
DA:109,0
DA:111,0
DA:112,0
DA:136,0
DA:137,0
DA:138,0
DA:140,0
DA:141,0
DA:144,0
DA:145,0
DA:146,0
DA:148,0
DA:149,0
DA:157,0
DA:173,0
DA:174,0
DA:176,0
DA:178,0
DA:179,0
DA:180,0
DA:181,0
DA:183,0
DA:184,0
DA:185,0
DA:186,0
DA:187,0
DA:189,0
DA:190,0
DA:192,0
DA:193,0
DA:195,0
DA:196,0
DA:197,0
DA:198,0
DA:199,0
DA:200,0
DA:202,0
DA:205,0
DA:206,0
DA:208,0
DA:212,0
DA:213,0
DA:217,0
DA:218,0
DA:219,0
DA:220,0
DA:221,0
DA:222,0
DA:225,0
DA:226,0
DA:228,0
DA:229,0
DA:232,0
DA:233,0
DA:234,0
DA:235,0
DA:236,0
DA:237,0
DA:239,0
DA:240,0
DA:248,0
DA:249,0
DA:250,0
DA:251,0
DA:252,0
DA:253,0
DA:254,0
DA:258,0
DA:259,0
DA:261,0
DA:263,0
DA:264,0
BRF:0
BFH:0
LF:92
LH:0
end_of_record
SF:bindings/wasm/src/iota.rs
FN:54,_RNCNvNtCskt00YjyhLiG_13identity_wasm4iota7publish0B5_
FN:81,_RNCNvNtCskt00YjyhLiG_13identity_wasm4iota16check_credential0B5_
FN:68,_RNCNvNtCskt00YjyhLiG_13identity_wasm4iota7resolve0B5_
FN:91,_RNCNvNtCskt00YjyhLiG_13identity_wasm4iota18check_presentation0B5_
FN:16,_RNvXNtCskt00YjyhLiG_13identity_wasm4iotaNtB2_10ClientNodeNtNtCs4RZURTQcbNt_4core3fmt5Debug3fmt
FN:31,_RNvNtCskt00YjyhLiG_13identity_wasm4iota6client
FNDA:0,_RNCNvNtCskt00YjyhLiG_13identity_wasm4iota7publish0B5_
FNDA:0,_RNCNvNtCskt00YjyhLiG_13identity_wasm4iota16check_credential0B5_
FNDA:0,_RNCNvNtCskt00YjyhLiG_13identity_wasm4iota7resolve0B5_
FNDA:0,_RNCNvNtCskt00YjyhLiG_13identity_wasm4iota18check_presentation0B5_
FNDA:0,_RNvXNtCskt00YjyhLiG_13identity_wasm4iotaNtB2_10ClientNodeNtNtCs4RZURTQcbNt_4core3fmt5Debug3fmt
FNDA:0,_RNvNtCskt00YjyhLiG_13identity_wasm4iota6client
FNF:6
FNH:0
DA:16,0
DA:24,0
DA:31,0
DA:32,0
DA:33,0
DA:35,0
DA:37,0
DA:38,0
DA:39,0
DA:40,0
DA:43,0
DA:44,0
DA:45,0
DA:47,0
DA:49,0
DA:54,0
DA:55,0
DA:57,0
DA:58,0
DA:63,0
DA:68,0
DA:69,0
DA:71,0
DA:72,0
DA:76,0
DA:81,0
DA:83,0
DA:85,0
DA:86,0
DA:91,0
DA:93,0
DA:94,0
DA:96,0
DA:98,0
DA:99,0
BRF:0
BFH:0
LF:35
LH:0
end_of_record
SF:bindings/wasm/src/method.rs
FN:14,_RNvXNtCskt00YjyhLiG_13identity_wasm6methodNtB2_6MethodNtNtCslJyejyMUgKL_12wasm_bindgen8describe12WasmDescribe8describe
FNDA:0,_RNvXNtCskt00YjyhLiG_13identity_wasm6methodNtB2_6MethodNtNtCslJyejyMUgKL_12wasm_bindgen8describe12WasmDescribe8describe
FNF:1
FNH:0
DA:14,0
DA:15,0
DA:18,0
BRF:0
BFH:0
LF:3
LH:0
end_of_record
SF:identity-account/src/error.rs
FN:26,_RNvXs_NtCsa2LO3QumKBA_16identity_account5errorNtB4_5ErrorINtNtCs4RZURTQcbNt_4core7convert4FromNtNtCsdeARM1s6qUm_5riker6system11SystemErrorE4from
FNDA:0,_RNvXs_NtCsa2LO3QumKBA_16identity_account5errorNtB4_5ErrorINtNtCs4RZURTQcbNt_4core7convert4FromNtNtCsdeARM1s6qUm_5riker6system11SystemErrorE4from
FNF:1
FNH:0
DA:26,0
DA:27,0
DA:28,0
DA:32,0
DA:33,0
DA:34,0
BRF:0
BFH:0
LF:6
LH:0
end_of_record
SF:identity-account/src/stronghold/context.rs
FN:130,_RNvXs0_NtNtCsa2LO3QumKBA_16identity_account10stronghold7contextNtB5_8DatabaseNtNtNtCs4RZURTQcbNt_4core3ops5deref5Deref5deref
FN:137,_RNvMNtNtCsa2LO3QumKBA_16identity_account10stronghold7contextNtB2_7Context12set_password
FN:141,_RNvMNtNtCsa2LO3QumKBA_16identity_account10stronghold7contextNtB2_7Context18set_password_clear
FN:82,_RNvMNtNtCsa2LO3QumKBA_16identity_account10stronghold7contextNtB2_7Context3get
FN:429,_RNvMs2_NtNtCsa2LO3QumKBA_16identity_account10stronghold7contextNtB5_7Runtime12set_password
FN:145,_RNvMNtNtCsa2LO3QumKBA_16identity_account10stronghold7contextNtB2_7Context15snapshot_status
FN:447,_RNvMs2_NtNtCsa2LO3QumKBA_16identity_account10stronghold7contextNtB5_7Runtime18set_password_clear
FN:390,_RNvMs2_NtNtCsa2LO3QumKBA_16identity_account10stronghold7contextNtB5_7Runtime4emit
FN:41,_RNvNtNtCsa2LO3QumKBA_16identity_account10stronghold7context13async_runtime
FN:423,_RNvMs2_NtNtCsa2LO3QumKBA_16identity_account10stronghold7contextNtB5_7Runtime16password_elapsed
FN:398,_RNvMs2_NtNtCsa2LO3QumKBA_16identity_account10stronghold7contextNtB5_7Runtime15snapshot_status
FN:453,_RNvMs2_NtNtCsa2LO3QumKBA_16identity_account10stronghold7contextNtB5_7Runtime15event_listeners
FN:457,_RNvMs2_NtNtCsa2LO3QumKBA_16identity_account10stronghold7contextNtB5_7Runtime14password_store
FN:47,_RNvNtNtCsa2LO3QumKBA_16identity_account10stronghold7context19async_runtime_guard
FN:461,_RNvMs2_NtNtCsa2LO3QumKBA_16identity_account10stronghold7contextNtB5_7Runtime14password_clear
FN:437,_RNvMs2_NtNtCsa2LO3QumKBA_16identity_account10stronghold7contextNtB5_7Runtime19set_password_access
FN:293,_RNvMs_NtNtCsa2LO3QumKBA_16identity_account10stronghold7contextNtB4_8Database20current_snapshot_neq
FN:286,_RNvMs_NtNtCsa2LO3QumKBA_16identity_account10stronghold7contextNtB4_8Database19current_snapshot_eq
FN:415,_RNvMs2_NtNtCsa2LO3QumKBA_16identity_account10stronghold7contextNtB5_7Runtime8password
FN:161,_RNCNvMNtNtCsa2LO3QumKBA_16identity_account10stronghold7contextNtB4_7Context6unload0B8_
FN:426,_RNCNvMs2_NtNtCsa2LO3QumKBA_16identity_account10stronghold7contextNtB7_7Runtime16password_elapsed0Bb_
FN:311,_RNCNvMs_NtNtCsa2LO3QumKBA_16identity_account10stronghold7contextNtB6_8Database5write0Ba_
FN:150,_RNCNvMNtNtCsa2LO3QumKBA_16identity_account10stronghold7contextNtB4_7Context4load0B8_
FN:328,_RNCNvMs_NtNtCsa2LO3QumKBA_16identity_account10stronghold7contextNtB6_8Database15switch_snapshot0Ba_
FN:48,_RNCNvNtNtCsa2LO3QumKBA_16identity_account10stronghold7context19async_runtime_guard0B7_
FN:104,_RNCNCNvMNtNtCsa2LO3QumKBA_16identity_account10stronghold7contextNtB6_7Context3gets_00Ba_
FN:103,_RNCNvMNtNtCsa2LO3QumKBA_16identity_account10stronghold7contextNtB4_7Context3gets_0B8_
FN:87,_RNCNvMNtNtCsa2LO3QumKBA_16identity_account10stronghold7contextNtB4_7Context3get0B8_
FN:121,_RNCNvMNtNtCsa2LO3QumKBA_16identity_account10stronghold7contextNtB4_7Context5scope0B8_
FN:249,_RNCNvMs_NtNtCsa2LO3QumKBA_16identity_account10stronghold7contextNtB6_8Database6unload0Ba_
FN:300,_RNCNvMs_NtNtCsa2LO3QumKBA_16identity_account10stronghold7contextNtB6_8Database5flush0Ba_
FN:51,_RNCNvNtNtCsa2LO3QumKBA_16identity_account10stronghold7context23clear_expired_passwords0B7_
FN:212,_RNCNvMs_NtNtCsa2LO3QumKBA_16identity_account10stronghold7contextNtB6_8Database8activate0Ba_
FNDA:0,_RNvXs0_NtNtCsa2LO3QumKBA_16identity_account10stronghold7contextNtB5_8DatabaseNtNtNtCs4RZURTQcbNt_4core3ops5deref5Deref5deref
FNDA:0,_RNvMNtNtCsa2LO3QumKBA_16identity_account10stronghold7contextNtB2_7Context12set_password
FNDA:0,_RNvMNtNtCsa2LO3QumKBA_16identity_account10stronghold7contextNtB2_7Context18set_password_clear
FNDA:0,_RNvMNtNtCsa2LO3QumKBA_16identity_account10stronghold7contextNtB2_7Context3get
FNDA:0,_RNvMs2_NtNtCsa2LO3QumKBA_16identity_account10stronghold7contextNtB5_7Runtime12set_password
FNDA:0,_RNvMNtNtCsa2LO3QumKBA_16identity_account10stronghold7contextNtB2_7Context15snapshot_status
FNDA:0,_RNvMs2_NtNtCsa2LO3QumKBA_16identity_account10stronghold7contextNtB5_7Runtime18set_password_clear
FNDA:0,_RNvMs2_NtNtCsa2LO3QumKBA_16identity_account10stronghold7contextNtB5_7Runtime4emit
FNDA:0,_RNvNtNtCsa2LO3QumKBA_16identity_account10stronghold7context13async_runtime
FNDA:0,_RNvMs2_NtNtCsa2LO3QumKBA_16identity_account10stronghold7contextNtB5_7Runtime16password_elapsed
FNDA:0,_RNvMs2_NtNtCsa2LO3QumKBA_16identity_account10stronghold7contextNtB5_7Runtime15snapshot_status
FNDA:0,_RNvMs2_NtNtCsa2LO3QumKBA_16identity_account10stronghold7contextNtB5_7Runtime15event_listeners
FNDA:0,_RNvMs2_NtNtCsa2LO3QumKBA_16identity_account10stronghold7contextNtB5_7Runtime14password_store
FNDA:0,_RNvNtNtCsa2LO3QumKBA_16identity_account10stronghold7context19async_runtime_guard
FNDA:0,_RNvMs2_NtNtCsa2LO3QumKBA_16identity_account10stronghold7contextNtB5_7Runtime14password_clear
FNDA:0,_RNvMs2_NtNtCsa2LO3QumKBA_16identity_account10stronghold7contextNtB5_7Runtime19set_password_access
FNDA:0,_RNvMs_NtNtCsa2LO3QumKBA_16identity_account10stronghold7contextNtB4_8Database20current_snapshot_neq
FNDA:0,_RNvMs_NtNtCsa2LO3QumKBA_16identity_account10stronghold7contextNtB4_8Database19current_snapshot_eq
FNDA:0,_RNvMs2_NtNtCsa2LO3QumKBA_16identity_account10stronghold7contextNtB5_7Runtime8password
FNDA:0,_RNCNvMNtNtCsa2LO3QumKBA_16identity_account10stronghold7contextNtB4_7Context6unload0B8_
FNDA:0,_RNCNvMs2_NtNtCsa2LO3QumKBA_16identity_account10stronghold7contextNtB7_7Runtime16password_elapsed0Bb_
FNDA:0,_RNCNvMs_NtNtCsa2LO3QumKBA_16identity_account10stronghold7contextNtB6_8Database5write0Ba_
FNDA:0,_RNCNvMNtNtCsa2LO3QumKBA_16identity_account10stronghold7contextNtB4_7Context4load0B8_
FNDA:0,_RNCNvMs_NtNtCsa2LO3QumKBA_16identity_account10stronghold7contextNtB6_8Database15switch_snapshot0Ba_
FNDA:0,_RNCNvNtNtCsa2LO3QumKBA_16identity_account10stronghold7context19async_runtime_guard0B7_
FNDA:0,_RNCNCNvMNtNtCsa2LO3QumKBA_16identity_account10stronghold7contextNtB6_7Context3gets_00Ba_
FNDA:0,_RNCNvMNtNtCsa2LO3QumKBA_16identity_account10stronghold7contextNtB4_7Context3gets_0B8_
FNDA:0,_RNCNvMNtNtCsa2LO3QumKBA_16identity_account10stronghold7contextNtB4_7Context3get0B8_
FNDA:0,_RNCNvMNtNtCsa2LO3QumKBA_16identity_account10stronghold7contextNtB4_7Context5scope0B8_
FNDA:0,_RNCNvMs_NtNtCsa2LO3QumKBA_16identity_account10stronghold7contextNtB6_8Database6unload0Ba_
FNDA:0,_RNCNvMs_NtNtCsa2LO3QumKBA_16identity_account10stronghold7contextNtB6_8Database5flush0Ba_
FNDA:0,_RNCNvNtNtCsa2LO3QumKBA_16identity_account10stronghold7context23clear_expired_passwords0B7_
FNDA:0,_RNCNvMs_NtNtCsa2LO3QumKBA_16identity_account10stronghold7contextNtB6_8Database8activate0Ba_
FNF:33
FNH:0
DA:41,0
DA:42,0
DA:43,0
DA:44,0
DA:45,0
DA:47,0
DA:48,0
DA:49,0
DA:51,0
DA:52,0
DA:53,0
DA:55,0
DA:56,0
DA:57,0
DA:58,0
DA:59,0
DA:61,0
DA:62,0
DA:63,0
DA:64,0
DA:68,0
DA:70,0
DA:71,0
DA:72,0
DA:73,0
DA:75,0
DA:78,0
DA:79,0
DA:82,0
DA:87,0
DA:88,0
DA:89,0
DA:90,0
DA:91,0
DA:93,0
DA:94,0
DA:95,0
DA:96,0
DA:97,0
DA:98,0
DA:99,0
DA:100,0
DA:103,0
DA:104,0
DA:105,0
DA:109,0
DA:110,0
DA:111,0
DA:112,0
DA:113,0
DA:114,0
DA:121,0
DA:122,0
DA:124,0
DA:125,0
DA:127,0
DA:128,0
DA:130,0
DA:131,0
DA:132,0
DA:133,0
DA:134,0
DA:135,0
DA:137,0
DA:138,0
DA:139,0
DA:141,0
DA:142,0
DA:143,0
DA:145,0
DA:146,0
DA:147,0
DA:150,0
DA:151,0
DA:153,0
DA:154,0
DA:155,0
DA:157,0
DA:158,0
DA:161,0
DA:162,0
DA:164,0
DA:166,0
DA:167,0
DA:169,0
DA:170,0
DA:171,0
DA:173,0
DA:175,0
DA:176,0
DA:212,0
DA:215,0
DA:216,0
DA:218,0
DA:219,0
DA:220,0
DA:222,0
DA:224,0
DA:227,0
DA:228,0
DA:229,0
DA:230,0
DA:232,0
DA:233,0
DA:234,0
DA:238,0
DA:240,0
DA:241,0
DA:243,0
DA:244,0
DA:246,0
DA:247,0
DA:249,0
DA:250,0
DA:253,0
DA:254,0
DA:255,0
DA:258,0
DA:260,0
DA:261,0
DA:262,0
DA:264,0
DA:267,0
DA:268,0
DA:269,0
DA:271,0
DA:274,0
DA:275,0
DA:276,0
DA:277,0
DA:280,0
DA:281,0
DA:282,0
DA:283,0
DA:284,0
DA:286,0
DA:288,0
DA:289,0
DA:291,0
DA:293,0
DA:295,0
DA:296,0
DA:298,0
DA:300,0
DA:301,0
DA:302,0
DA:303,0
DA:305,0
DA:306,0
DA:307,0
DA:308,0
DA:311,0
DA:313,0
DA:314,0
DA:316,0
DA:317,0
DA:318,0
DA:322,0
DA:323,0
DA:324,0
DA:325,0
DA:328,0
DA:329,0
DA:331,0
DA:332,0
DA:335,0
DA:336,0
DA:337,0
DA:339,0
DA:340,0
DA:346,0
DA:347,0
DA:348,0
DA:352,0
DA:353,0
DA:354,0
DA:381,0
DA:382,0
DA:383,0
DA:384,0
DA:385,0
DA:386,0
DA:387,0
DA:388,0
DA:390,0
DA:391,0
DA:392,0
DA:393,0
DA:395,0
DA:396,0
DA:398,0
DA:399,0
DA:400,0
DA:401,0
DA:403,0
DA:404,0
DA:405,0
DA:406,0
DA:408,0
DA:411,0
DA:413,0
DA:415,0
DA:416,0
DA:417,0
DA:418,0
DA:420,0
DA:421,0
DA:423,0
DA:424,0
DA:425,0
DA:426,0
DA:427,0
DA:429,0
DA:430,0
DA:431,0
DA:432,0
DA:433,0
DA:434,0
DA:435,0
DA:437,0
DA:438,0
DA:439,0
DA:440,0
DA:441,0
DA:444,0
DA:445,0
DA:447,0
DA:448,0
DA:450,0
DA:451,0
DA:453,0
DA:454,0
DA:455,0
DA:457,0
DA:458,0
DA:459,0
DA:461,0
DA:462,0
DA:463,0
BRF:0
BFH:0
LF:247
LH:0
end_of_record
SF:identity-account/src/stronghold/records.rs
FN:189,_RNvNtNtNtCsa2LO3QumKBA_16identity_account10stronghold7records5testss_17test_record_index
FN:26,_RNvMs1_NtNtCsa2LO3QumKBA_16identity_account10stronghold7recordsNtB5_11RecordIndex7try_new
FN:161,_RNvMs1_NtNtCsa2LO3QumKBA_16identity_account10stronghold7recordsNtB5_11RecordIndex6remove
FN:148,_RNvMs1_NtNtCsa2LO3QumKBA_16identity_account10stronghold7recordsNtB5_11RecordIndex8contains
FN:152,_RNvMs1_NtNtCsa2LO3QumKBA_16identity_account10stronghold7recordsNtB5_11RecordIndex6insert
FNDA:0,_RNvNtNtNtCsa2LO3QumKBA_16identity_account10stronghold7records5testss_17test_record_index
FNDA:0,_RNvMs1_NtNtCsa2LO3QumKBA_16identity_account10stronghold7recordsNtB5_11RecordIndex7try_new
FNDA:0,_RNvMs1_NtNtCsa2LO3QumKBA_16identity_account10stronghold7recordsNtB5_11RecordIndex6remove
FNDA:0,_RNvMs1_NtNtCsa2LO3QumKBA_16identity_account10stronghold7recordsNtB5_11RecordIndex8contains
FNDA:0,_RNvMs1_NtNtCsa2LO3QumKBA_16identity_account10stronghold7recordsNtB5_11RecordIndex6insert
FNF:5
FNH:0
DA:26,0
DA:27,0
DA:28,0
DA:29,0
DA:30,0
DA:31,0
DA:32,0
DA:33,0
DA:34,0
DA:38,0
DA:39,0
DA:40,0
DA:42,0
DA:43,0
DA:44,0
DA:46,0
DA:47,0
DA:48,0
DA:50,0
DA:51,0
DA:52,0
DA:54,0
DA:55,0
DA:56,0
DA:57,0
DA:60,0
DA:64,0
DA:66,0
DA:67,0
DA:68,0
DA:70,0
DA:71,0
DA:73,0
DA:74,0
DA:75,0
DA:76,0
DA:77,0
DA:78,0
DA:79,0
DA:80,0
DA:83,0
DA:84,0
DA:85,0
DA:86,0
DA:88,0
DA:89,0
DA:91,0
DA:92,0
DA:93,0
DA:94,0
DA:95,0
DA:96,0
DA:97,0
DA:98,0
DA:101,0
DA:103,0
DA:104,0
DA:113,0
DA:114,0
DA:115,0
DA:117,0
DA:118,0
DA:119,0
DA:132,0
DA:133,0
DA:134,0
DA:135,0
DA:136,0
DA:137,0
DA:138,0
DA:140,0
DA:141,0
DA:142,0
DA:148,0
DA:149,0
DA:150,0
DA:152,0
DA:153,0
DA:154,0
DA:155,0
DA:156,0
DA:157,0
DA:158,0
DA:159,0
DA:161,0
DA:162,0
DA:164,0
DA:165,0
DA:166,0
DA:167,0
DA:168,0
DA:169,0
DA:170,0
DA:178,0
DA:179,0
DA:180,0
DA:189,0
DA:190,0
DA:191,0
DA:192,0
DA:193,0
DA:194,0
DA:196,0
DA:197,0
DA:198,0
DA:200,0
DA:201,0
DA:202,0
DA:204,0
DA:206,0
DA:207,0
DA:208,0
DA:210,0
DA:211,0
DA:212,0
DA:214,0
DA:216,0
DA:217,0
DA:218,0
DA:219,0
DA:221,0
DA:222,0
DA:223,0
BRF:0
BFH:0
LF:123
LH:0
end_of_record
SF:identity-account/src/stronghold/result.rs
FN:13,_RNvXNtNtCsa2LO3QumKBA_16identity_account10stronghold6resultINtNtNtCs6ox8c4ynI7A_15iota_stronghold5utils5types13ResultMessageuEINtNtB6_5error27PleaseDontMakeYourOwnResultuE9to_resultB6_
FNDA:0,_RNvXNtNtCsa2LO3QumKBA_16identity_account10stronghold6resultINtNtNtCs6ox8c4ynI7A_15iota_stronghold5utils5types13ResultMessageuEINtNtB6_5error27PleaseDontMakeYourOwnResultuE9to_resultB6_
FNF:1
FNH:0
DA:13,0
DA:14,0
DA:15,0
DA:16,0
DA:18,0
BRF:0
BFH:0
LF:5
LH:0
end_of_record
SF:identity-account/src/stronghold/snapshot.rs
FN:17,_RNvMNtNtCsa2LO3QumKBA_16identity_account10stronghold8snapshotNtB2_8Snapshot18set_password_clear
FNDA:0,_RNvMNtNtCsa2LO3QumKBA_16identity_account10stronghold8snapshotNtB2_8Snapshot18set_password_clear
FNF:1
FNH:0
DA:17,0
DA:23,0
DA:24,0
DA:25,0
DA:27,0
DA:28,0
DA:29,0
DA:30,0
DA:31,0
DA:32,0
DA:43,0
DA:44,0
DA:45,0
DA:47,0
DA:48,0
DA:49,0
DA:50,0
DA:51,0
DA:52,0
DA:61,0
DA:62,0
DA:63,0
DA:64,0
DA:65,0
DA:66,0
DA:84,0
DA:85,0
DA:86,0
BRF:0
BFH:0
LF:28
LH:0
end_of_record
SF:identity-account/src/stronghold/status.rs
FN:6,_RNvMNtNtCsa2LO3QumKBA_16identity_account10stronghold6statusNtB2_14SnapshotStatus6locked
FNDA:0,_RNvMNtNtCsa2LO3QumKBA_16identity_account10stronghold6statusNtB2_14SnapshotStatus6locked
FNF:1
FNH:0
DA:6,0
DA:15,0
DA:16,0
DA:17,0
BRF:0
BFH:0
LF:4
LH:0
end_of_record
SF:identity-account/src/stronghold/store.rs
FN:55,_RNCNvMs_NtNtCsa2LO3QumKBA_16identity_account10stronghold5storeNtB6_5Store3get0Ba_
FN:64,_RNCNvMs_NtNtCsa2LO3QumKBA_16identity_account10stronghold5storeNtB6_5Store10get_strict0Ba_
FNDA:0,_RNCNvMs_NtNtCsa2LO3QumKBA_16identity_account10stronghold5storeNtB6_5Store3get0Ba_
FNDA:0,_RNCNvMs_NtNtCsa2LO3QumKBA_16identity_account10stronghold5storeNtB6_5Store10get_strict0Ba_
FNF:2
FNH:0
DA:55,0
DA:56,0
DA:57,0
DA:58,0
DA:60,0
DA:64,0
DA:65,0
DA:67,0
DA:69,0
DA:70,0
BRF:0
BFH:0
LF:10
LH:0
end_of_record
SF:identity-account/src/utils/fs.rs
FN:30,_RINvNtNtCsa2LO3QumKBA_16identity_account5utils2fs16ensure_directoryNtNtCshPubVYBMhTy_3std4path4PathEB6_
FNDA:0,_RINvNtNtCsa2LO3QumKBA_16identity_account5utils2fs16ensure_directoryNtNtCshPubVYBMhTy_3std4path4PathEB6_
FNF:1
FNH:0
DA:30,0
DA:31,0
DA:32,0
DA:34,0
DA:35,0
BRF:0
BFH:0
LF:5
LH:0
end_of_record
SF:identity-core/src/common/bitset.rs
FN:56,_RINvMNtNtCsdMIo0gejTVK_13identity_core6common6bitsetNtB3_6BitSet10insert_allINtNtNtCs4RZURTQcbNt_4core3ops5range5RangemEEB7_
FN:146,_RNvNtNtNtCsdMIo0gejTVK_13identity_core6common6bitset5testss_11test_basics
FN:71,_RNvMNtNtCsjQ7CiUSXMgx_13identity_core6common6bitsetNtB2_6BitSet13serialize_b64
FN:76,_RNvMNtNtCsjQ7CiUSXMgx_13identity_core6common6bitsetNtB2_6BitSet13serialize_vec
FN:21,_RNvXNvXs1_NtNtCsjQ7CiUSXMgx_13identity_core6common6bitsetNtB8_6BitSetNtNtCsbmAr7Tf4vl1_5serde2de11Deserialize11deserializeNtB2_9___VisitorNtB17_7Visitor9expecting
FN:85,_RNvMNtNtCsjQ7CiUSXMgx_13identity_core6common6bitsetNtB2_6BitSet15deserialize_b64
FN:104,_RINvXs0_NtNtCsjQ7CiUSXMgx_13identity_core6common6bitsetNtB6_6BitSetNtNtCsbmAr7Tf4vl1_5serde3ser9Serialize9serializeNtNtNtCs1CNeFI220rp_10serde_json5value3ser10SerializerECsapfZL3txtKN_13identity_iota
FNDA:0,_RINvMNtNtCsdMIo0gejTVK_13identity_core6common6bitsetNtB3_6BitSet10insert_allINtNtNtCs4RZURTQcbNt_4core3ops5range5RangemEEB7_
FNDA:0,_RNvNtNtNtCsdMIo0gejTVK_13identity_core6common6bitset5testss_11test_basics
FNDA:0,_RNvMNtNtCsjQ7CiUSXMgx_13identity_core6common6bitsetNtB2_6BitSet13serialize_b64
FNDA:0,_RNvMNtNtCsjQ7CiUSXMgx_13identity_core6common6bitsetNtB2_6BitSet13serialize_vec
FNDA:0,_RNvXNvXs1_NtNtCsjQ7CiUSXMgx_13identity_core6common6bitsetNtB8_6BitSetNtNtCsbmAr7Tf4vl1_5serde2de11Deserialize11deserializeNtB2_9___VisitorNtB17_7Visitor9expecting
FNDA:0,_RNvMNtNtCsjQ7CiUSXMgx_13identity_core6common6bitsetNtB2_6BitSet15deserialize_b64
FNDA:0,_RINvXs0_NtNtCsjQ7CiUSXMgx_13identity_core6common6bitsetNtB6_6BitSetNtNtCsbmAr7Tf4vl1_5serde3ser9Serialize9serializeNtNtNtCs1CNeFI220rp_10serde_json5value3ser10SerializerECsapfZL3txtKN_13identity_iota
FNF:7
FNH:0
DA:21,0
DA:56,0
DA:57,0
DA:58,0
DA:59,0
DA:60,0
DA:61,0
DA:62,0
DA:63,0
DA:71,0
DA:72,0
DA:73,0
DA:76,0
DA:77,0
DA:79,0
DA:81,0
DA:82,0
DA:85,0
DA:86,0
DA:87,0
DA:104,0
DA:105,0
DA:106,0
DA:107,0
DA:108,0
DA:109,0
DA:110,0
DA:111,0
DA:112,0
DA:116,0
DA:117,0
DA:118,0
DA:119,0
DA:120,0
DA:121,0
DA:122,0
DA:123,0
DA:124,0
DA:125,0
DA:126,0
DA:127,0
DA:128,0
DA:129,0
DA:130,0
DA:131,0
DA:132,0
DA:133,0
DA:134,0
DA:135,0
DA:136,0
DA:137,0
DA:138,0
DA:146,0
DA:147,0
DA:149,0
DA:151,0
DA:152,0
DA:153,0
DA:156,0
DA:158,0
DA:159,0
DA:162,0
DA:163,0
DA:164,0
DA:167,0
DA:169,0
DA:170,0
DA:173,0
DA:174,0
DA:176,0
DA:178,0
DA:180,0
DA:181,0
BRF:0
BFH:0
LF:90
LH:0
end_of_record
SF:identity-core/src/common/context.rs
FN:48,_RNvXs1_NtNtCsjQ7CiUSXMgx_13identity_core6common7contextNtB5_7ContextINtNtCs4RZURTQcbNt_4core3cmp9PartialEqReE2eqCs9VfPsUr1MEv_19identity_credential
FN:48,_RNvXs1_NtNtCsjQ7CiUSXMgx_13identity_core6common7contextNtB5_7ContextINtNtCs4RZURTQcbNt_4core3cmp9PartialEqeE2eqCs9VfPsUr1MEv_19identity_credential
FN:14,_RNvXNtNtCsjQ7CiUSXMgx_13identity_core6common7contextNtB2_7ContextNtNtCs4RZURTQcbNt_4core3fmt5Debug3fmt
FNDA:0,_RNvXs1_NtNtCsjQ7CiUSXMgx_13identity_core6common7contextNtB5_7ContextINtNtCs4RZURTQcbNt_4core3cmp9PartialEqReE2eqCs9VfPsUr1MEv_19identity_credential
FNDA:0,_RNvXs1_NtNtCsjQ7CiUSXMgx_13identity_core6common7contextNtB5_7ContextINtNtCs4RZURTQcbNt_4core3cmp9PartialEqeE2eqCs9VfPsUr1MEv_19identity_credential
FNDA:0,_RNvXNtNtCsjQ7CiUSXMgx_13identity_core6common7contextNtB2_7ContextNtNtCs4RZURTQcbNt_4core3fmt5Debug3fmt
FNF:2
FNH:0
DA:14,0
DA:24,0
DA:25,0
DA:26,0
DA:27,0
DA:29,0
DA:48,0
DA:49,0
DA:50,0
DA:51,0
DA:53,0
BRF:0
BFH:0
LF:16
LH:0
end_of_record
SF:identity-core/src/common/one_or_many.rs
FN:42,_RNvMNtNtCsjQ7CiUSXMgx_13identity_core6common11one_or_manyINtB2_9OneOrManyNtNtNtCs9VfPsUr1MEv_19identity_credential10credential7subject7SubjectE3getB1f_
FN:129,_RNvXs1_NtNtCsjQ7CiUSXMgx_13identity_core6common11one_or_manyINtB5_9OneOrManyNtNtCslaFPCg94Pel_5alloc6string6StringENtNtNtCs4RZURTQcbNt_4core3ops5deref5Deref5derefCs9VfPsUr1MEv_19identity_credential
FN:156,_RNvXs5_NtNtCsjQ7CiUSXMgx_13identity_core6common11one_or_manyINtB5_9OneOrManyNtNtCslaFPCg94Pel_5alloc6string6StringEINtNtCs4RZURTQcbNt_4core7convert4FromINtNtB1g_3vec3VecB1c_EE4fromCs9VfPsUr1MEv_19identity_credential
FN:156,_RNvXs5_NtNtCsjQ7CiUSXMgx_13identity_core6common11one_or_manyINtB5_9OneOrManyNtNtNtCs9VfPsUr1MEv_19identity_credential10credential8evidence8EvidenceEINtNtCs4RZURTQcbNt_4core7convert4FromINtNtCslaFPCg94Pel_5alloc3vec3VecB1c_EE4fromB1i_
FN:156,_RNvXs5_NtNtCsjQ7CiUSXMgx_13identity_core6common11one_or_manyINtB5_9OneOrManyNtNtNtCs9VfPsUr1MEv_19identity_credential10credential10credential10CredentialEINtNtCs4RZURTQcbNt_4core7convert4FromINtNtCslaFPCg94Pel_5alloc3vec3VecB1c_EE4fromB1i_
FN:156,_RNvXs5_NtNtCsjQ7CiUSXMgx_13identity_core6common11one_or_manyINtB5_9OneOrManyNtNtNtCs9VfPsUr1MEv_19identity_credential10credential6status6StatusEINtNtCs4RZURTQcbNt_4core7convert4FromINtNtCslaFPCg94Pel_5alloc3vec3VecB1c_EE4fromB1i_
FN:33,_RNvMNtNtCsjQ7CiUSXMgx_13identity_core6common11one_or_manyINtB2_9OneOrManyNtNtNtCs9VfPsUr1MEv_19identity_credential10credential7refresh7RefreshE8is_emptyB1f_
FN:42,_RNvMNtNtCsjQ7CiUSXMgx_13identity_core6common11one_or_manyINtB2_9OneOrManyNtNtCslaFPCg94Pel_5alloc6string6StringE3getCs9VfPsUr1MEv_19identity_credential
FN:25,_RNvMNtNtCsjQ7CiUSXMgx_13identity_core6common11one_or_manyINtB2_9OneOrManyNtNtNtCs9VfPsUr1MEv_19identity_credential10credential10credential10CredentialE3lenB1f_
FN:129,_RNvXs1_NtNtCsjQ7CiUSXMgx_13identity_core6common11one_or_manyINtB5_9OneOrManyNtNtB7_7context7ContextENtNtNtCs4RZURTQcbNt_4core3ops5deref5Deref5derefCs9VfPsUr1MEv_19identity_credential
FN:156,_RNvXs5_NtNtCsjQ7CiUSXMgx_13identity_core6common11one_or_manyINtB5_9OneOrManyNtNtB7_7context7ContextEINtNtCs4RZURTQcbNt_4core7convert4FromINtNtCslaFPCg94Pel_5alloc3vec3VecB1c_EE4fromCs9VfPsUr1MEv_19identity_credential
FN:25,_RNvMNtNtCsjQ7CiUSXMgx_13identity_core6common11one_or_manyINtB2_9OneOrManyNtNtNtCs9VfPsUr1MEv_19identity_credential10credential7subject7SubjectE3lenB1f_
FN:33,_RNvMNtNtCsjQ7CiUSXMgx_13identity_core6common11one_or_manyINtB2_9OneOrManyNtNtNtCs9VfPsUr1MEv_19identity_credential10credential6policy6PolicyE8is_emptyB1f_
FN:42,_RNvMNtNtCsjQ7CiUSXMgx_13identity_core6common11one_or_manyINtB2_9OneOrManyNtNtB4_7context7ContextE3getCs9VfPsUr1MEv_19identity_credential
FN:156,_RNvXs5_NtNtCsjQ7CiUSXMgx_13identity_core6common11one_or_manyINtB5_9OneOrManyNtNtNtCs9VfPsUr1MEv_19identity_credential10credential6policy6PolicyEINtNtCs4RZURTQcbNt_4core7convert4FromINtNtCslaFPCg94Pel_5alloc3vec3VecB1c_EE4fromB1i_
FN:25,_RNvMNtNtCsjQ7CiUSXMgx_13identity_core6common11one_or_manyINtB2_9OneOrManyNtNtCslaFPCg94Pel_5alloc6string6StringE3lenCs9VfPsUr1MEv_19identity_credential
FN:33,_RNvMNtNtCsjQ7CiUSXMgx_13identity_core6common11one_or_manyINtB2_9OneOrManyNtNtNtCs9VfPsUr1MEv_19identity_credential10credential6status6StatusE8is_emptyB1f_
FN:33,_RNvMNtNtCsjQ7CiUSXMgx_13identity_core6common11one_or_manyINtB2_9OneOrManyNtNtNtCs9VfPsUr1MEv_19identity_credential10credential7subject7SubjectE8is_emptyB1f_
FN:156,_RNvXs5_NtNtCsjQ7CiUSXMgx_13identity_core6common11one_or_manyINtB5_9OneOrManyNtNtNtCs9VfPsUr1MEv_19identity_credential10credential7refresh7RefreshEINtNtCs4RZURTQcbNt_4core7convert4FromINtNtCslaFPCg94Pel_5alloc3vec3VecB1c_EE4fromB1i_
FN:33,_RNvMNtNtCsjQ7CiUSXMgx_13identity_core6common11one_or_manyINtB2_9OneOrManyNtNtNtCs9VfPsUr1MEv_19identity_credential10credential6schema6SchemaE8is_emptyB1f_
FN:25,_RNvMNtNtCsjQ7CiUSXMgx_13identity_core6common11one_or_manyINtB2_9OneOrManyNtNtB4_7context7ContextE3lenCs9VfPsUr1MEv_19identity_credential
FN:156,_RNvXs5_NtNtCsjQ7CiUSXMgx_13identity_core6common11one_or_manyINtB5_9OneOrManyNtNtNtCs9VfPsUr1MEv_19identity_credential10credential7subject7SubjectEINtNtCs4RZURTQcbNt_4core7convert4FromINtNtCslaFPCg94Pel_5alloc3vec3VecB1c_EE4fromB1i_
FN:33,_RNvMNtNtCsjQ7CiUSXMgx_13identity_core6common11one_or_manyINtB2_9OneOrManyNtNtNtCs9VfPsUr1MEv_19identity_credential10credential8evidence8EvidenceE8is_emptyB1f_
FN:42,_RNvMNtNtCsjQ7CiUSXMgx_13identity_core6common11one_or_manyINtB2_9OneOrManyNtNtNtCs9VfPsUr1MEv_19identity_credential10credential10credential10CredentialE3getB1f_
FN:156,_RNvXs5_NtNtCsjQ7CiUSXMgx_13identity_core6common11one_or_manyINtB5_9OneOrManyNtNtNtCs9VfPsUr1MEv_19identity_credential10credential6schema6SchemaEINtNtCs4RZURTQcbNt_4core7convert4FromINtNtCslaFPCg94Pel_5alloc3vec3VecB1c_EE4fromB1i_
FN:156,_RNvXs5_NtNtCsjQ7CiUSXMgx_13identity_core6common11one_or_manyINtB5_9OneOrManyNtNtNtCs1iZZWPuKeP6_19identity_credential10credential8evidence8EvidenceEINtNtCs4RZURTQcbNt_4core7convert4FromINtNtCslaFPCg94Pel_5alloc3vec3VecB1c_EE4fromCskt00YjyhLiG_13identity_wasm
FN:93,_RNvMNtNtCsjQ7CiUSXMgx_13identity_core6common11one_or_manyINtB2_9OneOrManyNtNtCslaFPCg94Pel_5alloc6string6StringE8into_vecCskt00YjyhLiG_13identity_wasm
FN:33,_RNvMNtNtCsjQ7CiUSXMgx_13identity_core6common11one_or_manyINtB2_9OneOrManyNtNtNtCs1iZZWPuKeP6_19identity_credential10credential6schema6SchemaE8is_emptyCskt00YjyhLiG_13identity_wasm
FN:42,_RNvMNtNtCsjQ7CiUSXMgx_13identity_core6common11one_or_manyINtB2_9OneOrManyNtNtCslaFPCg94Pel_5alloc6string6StringE3getCskt00YjyhLiG_13identity_wasm
FN:42,_RNvMNtNtCsjQ7CiUSXMgx_13identity_core6common11one_or_manyINtB2_9OneOrManyNtNtNtCs1iZZWPuKeP6_19identity_credential10credential10credential10CredentialE3getCskt00YjyhLiG_13identity_wasm
FN:33,_RNvMNtNtCsjQ7CiUSXMgx_13identity_core6common11one_or_manyINtB2_9OneOrManyNtNtNtCs1iZZWPuKeP6_19identity_credential10credential6status6StatusE8is_emptyCskt00YjyhLiG_13identity_wasm
FN:105,_RNvXs_NtNtCsjQ7CiUSXMgx_13identity_core6common11one_or_manyINtB4_9OneOrManyNtNtNtCs1iZZWPuKeP6_19identity_credential10credential7refresh7RefreshENtNtCs4RZURTQcbNt_4core3fmt5Debug3fmtCskt00YjyhLiG_13identity_wasm
FN:33,_RNvMNtNtCsjQ7CiUSXMgx_13identity_core6common11one_or_manyINtB2_9OneOrManyNtNtNtCs1iZZWPuKeP6_19identity_credential10credential6policy6PolicyE8is_emptyCskt00YjyhLiG_13identity_wasm
FN:156,_RNvXs5_NtNtCsjQ7CiUSXMgx_13identity_core6common11one_or_manyINtB5_9OneOrManyNtNtNtCs1iZZWPuKeP6_19identity_credential10credential10credential10CredentialEINtNtCs4RZURTQcbNt_4core7convert4FromINtNtCslaFPCg94Pel_5alloc3vec3VecB1c_EE4fromCskt00YjyhLiG_13identity_wasm
FN:105,_RNvXs_NtNtCsjQ7CiUSXMgx_13identity_core6common11one_or_manyINtB4_9OneOrManyNtNtNtCs1iZZWPuKeP6_19identity_credential10credential6policy6PolicyENtNtCs4RZURTQcbNt_4core3fmt5Debug3fmtCskt00YjyhLiG_13identity_wasm
FN:156,_RNvXs5_NtNtCsjQ7CiUSXMgx_13identity_core6common11one_or_manyINtB5_9OneOrManyNtNtCslaFPCg94Pel_5alloc6string6StringEINtNtCs4RZURTQcbNt_4core7convert4FromINtNtB1g_3vec3VecB1c_EE4fromCskt00YjyhLiG_13identity_wasm
FN:156,_RNvXs5_NtNtCsjQ7CiUSXMgx_13identity_core6common11one_or_manyINtB5_9OneOrManyNtNtNtCs1iZZWPuKeP6_19identity_credential10credential6policy6PolicyEINtNtCs4RZURTQcbNt_4core7convert4FromINtNtCslaFPCg94Pel_5alloc3vec3VecB1c_EE4fromCskt00YjyhLiG_13identity_wasm
FN:105,_RNvXs_NtNtCsjQ7CiUSXMgx_13identity_core6common11one_or_manyINtB4_9OneOrManyNtNtNtCs1iZZWPuKeP6_19identity_credential10credential10credential10CredentialENtNtCs4RZURTQcbNt_4core3fmt5Debug3fmtCskt00YjyhLiG_13identity_wasm
FN:33,_RNvMNtNtCsjQ7CiUSXMgx_13identity_core6common11one_or_manyINtB2_9OneOrManyNtNtNtCs1iZZWPuKeP6_19identity_credential10credential7refresh7RefreshE8is_emptyCskt00YjyhLiG_13identity_wasm
FN:105,_RNvXs_NtNtCsjQ7CiUSXMgx_13identity_core6common11one_or_manyINtB4_9OneOrManyNtNtB6_7context7ContextENtNtCs4RZURTQcbNt_4core3fmt5Debug3fmtCskt00YjyhLiG_13identity_wasm
FN:105,_RNvXs_NtNtCsjQ7CiUSXMgx_13identity_core6common11one_or_manyINtB4_9OneOrManyNtNtNtCs1iZZWPuKeP6_19identity_credential10credential6status6StatusENtNtCs4RZURTQcbNt_4core3fmt5Debug3fmtCskt00YjyhLiG_13identity_wasm
FN:156,_RNvXs5_NtNtCsjQ7CiUSXMgx_13identity_core6common11one_or_manyINtB5_9OneOrManyNtNtNtCs1iZZWPuKeP6_19identity_credential10credential7refresh7RefreshEINtNtCs4RZURTQcbNt_4core7convert4FromINtNtCslaFPCg94Pel_5alloc3vec3VecB1c_EE4fromCskt00YjyhLiG_13identity_wasm
FN:93,_RNvMNtNtCsjQ7CiUSXMgx_13identity_core6common11one_or_manyINtB2_9OneOrManyNtNtNtCs1iZZWPuKeP6_19identity_credential10credential7subject7SubjectE8into_vecCskt00YjyhLiG_13identity_wasm
FN:42,_RNvMNtNtCsjQ7CiUSXMgx_13identity_core6common11one_or_manyINtB2_9OneOrManyNtNtNtCs1iZZWPuKeP6_19identity_credential10credential7subject7SubjectE3getCskt00YjyhLiG_13identity_wasm
FN:105,_RNvXs_NtNtCsjQ7CiUSXMgx_13identity_core6common11one_or_manyINtB4_9OneOrManyNtNtNtCs1iZZWPuKeP6_19identity_credential10credential6schema6SchemaENtNtCs4RZURTQcbNt_4core3fmt5Debug3fmtCskt00YjyhLiG_13identity_wasm
FN:156,_RNvXs5_NtNtCsjQ7CiUSXMgx_13identity_core6common11one_or_manyINtB5_9OneOrManyNtNtNtCs1iZZWPuKeP6_19identity_credential10credential6schema6SchemaEINtNtCs4RZURTQcbNt_4core7convert4FromINtNtCslaFPCg94Pel_5alloc3vec3VecB1c_EE4fromCskt00YjyhLiG_13identity_wasm
FN:42,_RNvMNtNtCsjQ7CiUSXMgx_13identity_core6common11one_or_manyINtB2_9OneOrManyNtNtB4_7context7ContextE3getCskt00YjyhLiG_13identity_wasm
FN:93,_RNvMNtNtCsjQ7CiUSXMgx_13identity_core6common11one_or_manyINtB2_9OneOrManyNtNtNtCs1iZZWPuKeP6_19identity_credential10credential10credential10CredentialE8into_vecCskt00YjyhLiG_13identity_wasm
FN:105,_RNvXs_NtNtCsjQ7CiUSXMgx_13identity_core6common11one_or_manyINtB4_9OneOrManyNtNtNtCs1iZZWPuKeP6_19identity_credential10credential8evidence8EvidenceENtNtCs4RZURTQcbNt_4core3fmt5Debug3fmtCskt00YjyhLiG_13identity_wasm
FN:156,_RNvXs5_NtNtCsjQ7CiUSXMgx_13identity_core6common11one_or_manyINtB5_9OneOrManyNtNtB7_7context7ContextEINtNtCs4RZURTQcbNt_4core7convert4FromINtNtCslaFPCg94Pel_5alloc3vec3VecB1c_EE4fromCskt00YjyhLiG_13identity_wasm
FN:156,_RNvXs5_NtNtCsjQ7CiUSXMgx_13identity_core6common11one_or_manyINtB5_9OneOrManyNtNtNtCs1iZZWPuKeP6_19identity_credential10credential6status6StatusEINtNtCs4RZURTQcbNt_4core7convert4FromINtNtCslaFPCg94Pel_5alloc3vec3VecB1c_EE4fromCskt00YjyhLiG_13identity_wasm
FN:33,_RNvMNtNtCsjQ7CiUSXMgx_13identity_core6common11one_or_manyINtB2_9OneOrManyNtNtNtCs1iZZWPuKeP6_19identity_credential10credential7subject7SubjectE8is_emptyCskt00YjyhLiG_13identity_wasm
FN:105,_RNvXs_NtNtCsjQ7CiUSXMgx_13identity_core6common11one_or_manyINtB4_9OneOrManyNtNtNtCs1iZZWPuKeP6_19identity_credential10credential7subject7SubjectENtNtCs4RZURTQcbNt_4core3fmt5Debug3fmtCskt00YjyhLiG_13identity_wasm
FN:156,_RNvXs5_NtNtCsjQ7CiUSXMgx_13identity_core6common11one_or_manyINtB5_9OneOrManyNtNtNtCs1iZZWPuKeP6_19identity_credential10credential7subject7SubjectEINtNtCs4RZURTQcbNt_4core7convert4FromINtNtCslaFPCg94Pel_5alloc3vec3VecB1c_EE4fromCskt00YjyhLiG_13identity_wasm
FN:33,_RNvMNtNtCsjQ7CiUSXMgx_13identity_core6common11one_or_manyINtB2_9OneOrManyNtNtNtCs1iZZWPuKeP6_19identity_credential10credential8evidence8EvidenceE8is_emptyCskt00YjyhLiG_13identity_wasm
FN:105,_RNvXs_NtNtCsjQ7CiUSXMgx_13identity_core6common11one_or_manyINtB4_9OneOrManyNtNtCslaFPCg94Pel_5alloc6string6StringENtNtCs4RZURTQcbNt_4core3fmt5Debug3fmtCs1iZZWPuKeP6_19identity_credential
FNDA:0,_RNvMNtNtCsjQ7CiUSXMgx_13identity_core6common11one_or_manyINtB2_9OneOrManyNtNtNtCs9VfPsUr1MEv_19identity_credential10credential7subject7SubjectE3getB1f_
FNDA:0,_RNvXs1_NtNtCsjQ7CiUSXMgx_13identity_core6common11one_or_manyINtB5_9OneOrManyNtNtCslaFPCg94Pel_5alloc6string6StringENtNtNtCs4RZURTQcbNt_4core3ops5deref5Deref5derefCs9VfPsUr1MEv_19identity_credential
FNDA:0,_RNvXs5_NtNtCsjQ7CiUSXMgx_13identity_core6common11one_or_manyINtB5_9OneOrManyNtNtCslaFPCg94Pel_5alloc6string6StringEINtNtCs4RZURTQcbNt_4core7convert4FromINtNtB1g_3vec3VecB1c_EE4fromCs9VfPsUr1MEv_19identity_credential
FNDA:0,_RNvXs5_NtNtCsjQ7CiUSXMgx_13identity_core6common11one_or_manyINtB5_9OneOrManyNtNtNtCs9VfPsUr1MEv_19identity_credential10credential8evidence8EvidenceEINtNtCs4RZURTQcbNt_4core7convert4FromINtNtCslaFPCg94Pel_5alloc3vec3VecB1c_EE4fromB1i_
FNDA:0,_RNvXs5_NtNtCsjQ7CiUSXMgx_13identity_core6common11one_or_manyINtB5_9OneOrManyNtNtNtCs9VfPsUr1MEv_19identity_credential10credential10credential10CredentialEINtNtCs4RZURTQcbNt_4core7convert4FromINtNtCslaFPCg94Pel_5alloc3vec3VecB1c_EE4fromB1i_
FNDA:0,_RNvXs5_NtNtCsjQ7CiUSXMgx_13identity_core6common11one_or_manyINtB5_9OneOrManyNtNtNtCs9VfPsUr1MEv_19identity_credential10credential6status6StatusEINtNtCs4RZURTQcbNt_4core7convert4FromINtNtCslaFPCg94Pel_5alloc3vec3VecB1c_EE4fromB1i_
FNDA:0,_RNvMNtNtCsjQ7CiUSXMgx_13identity_core6common11one_or_manyINtB2_9OneOrManyNtNtNtCs9VfPsUr1MEv_19identity_credential10credential7refresh7RefreshE8is_emptyB1f_
FNDA:0,_RNvMNtNtCsjQ7CiUSXMgx_13identity_core6common11one_or_manyINtB2_9OneOrManyNtNtCslaFPCg94Pel_5alloc6string6StringE3getCs9VfPsUr1MEv_19identity_credential
FNDA:0,_RNvMNtNtCsjQ7CiUSXMgx_13identity_core6common11one_or_manyINtB2_9OneOrManyNtNtNtCs9VfPsUr1MEv_19identity_credential10credential10credential10CredentialE3lenB1f_
FNDA:0,_RNvXs1_NtNtCsjQ7CiUSXMgx_13identity_core6common11one_or_manyINtB5_9OneOrManyNtNtB7_7context7ContextENtNtNtCs4RZURTQcbNt_4core3ops5deref5Deref5derefCs9VfPsUr1MEv_19identity_credential
FNDA:0,_RNvXs5_NtNtCsjQ7CiUSXMgx_13identity_core6common11one_or_manyINtB5_9OneOrManyNtNtB7_7context7ContextEINtNtCs4RZURTQcbNt_4core7convert4FromINtNtCslaFPCg94Pel_5alloc3vec3VecB1c_EE4fromCs9VfPsUr1MEv_19identity_credential
FNDA:0,_RNvMNtNtCsjQ7CiUSXMgx_13identity_core6common11one_or_manyINtB2_9OneOrManyNtNtNtCs9VfPsUr1MEv_19identity_credential10credential7subject7SubjectE3lenB1f_
FNDA:0,_RNvMNtNtCsjQ7CiUSXMgx_13identity_core6common11one_or_manyINtB2_9OneOrManyNtNtNtCs9VfPsUr1MEv_19identity_credential10credential6policy6PolicyE8is_emptyB1f_
FNDA:0,_RNvMNtNtCsjQ7CiUSXMgx_13identity_core6common11one_or_manyINtB2_9OneOrManyNtNtB4_7context7ContextE3getCs9VfPsUr1MEv_19identity_credential
FNDA:0,_RNvXs5_NtNtCsjQ7CiUSXMgx_13identity_core6common11one_or_manyINtB5_9OneOrManyNtNtNtCs9VfPsUr1MEv_19identity_credential10credential6policy6PolicyEINtNtCs4RZURTQcbNt_4core7convert4FromINtNtCslaFPCg94Pel_5alloc3vec3VecB1c_EE4fromB1i_
FNDA:0,_RNvMNtNtCsjQ7CiUSXMgx_13identity_core6common11one_or_manyINtB2_9OneOrManyNtNtCslaFPCg94Pel_5alloc6string6StringE3lenCs9VfPsUr1MEv_19identity_credential
FNDA:0,_RNvMNtNtCsjQ7CiUSXMgx_13identity_core6common11one_or_manyINtB2_9OneOrManyNtNtNtCs9VfPsUr1MEv_19identity_credential10credential6status6StatusE8is_emptyB1f_
FNDA:0,_RNvMNtNtCsjQ7CiUSXMgx_13identity_core6common11one_or_manyINtB2_9OneOrManyNtNtNtCs9VfPsUr1MEv_19identity_credential10credential7subject7SubjectE8is_emptyB1f_
FNDA:0,_RNvXs5_NtNtCsjQ7CiUSXMgx_13identity_core6common11one_or_manyINtB5_9OneOrManyNtNtNtCs9VfPsUr1MEv_19identity_credential10credential7refresh7RefreshEINtNtCs4RZURTQcbNt_4core7convert4FromINtNtCslaFPCg94Pel_5alloc3vec3VecB1c_EE4fromB1i_
FNDA:0,_RNvMNtNtCsjQ7CiUSXMgx_13identity_core6common11one_or_manyINtB2_9OneOrManyNtNtNtCs9VfPsUr1MEv_19identity_credential10credential6schema6SchemaE8is_emptyB1f_
FNDA:0,_RNvMNtNtCsjQ7CiUSXMgx_13identity_core6common11one_or_manyINtB2_9OneOrManyNtNtB4_7context7ContextE3lenCs9VfPsUr1MEv_19identity_credential
FNDA:0,_RNvXs5_NtNtCsjQ7CiUSXMgx_13identity_core6common11one_or_manyINtB5_9OneOrManyNtNtNtCs9VfPsUr1MEv_19identity_credential10credential7subject7SubjectEINtNtCs4RZURTQcbNt_4core7convert4FromINtNtCslaFPCg94Pel_5alloc3vec3VecB1c_EE4fromB1i_
FNDA:0,_RNvMNtNtCsjQ7CiUSXMgx_13identity_core6common11one_or_manyINtB2_9OneOrManyNtNtNtCs9VfPsUr1MEv_19identity_credential10credential8evidence8EvidenceE8is_emptyB1f_
FNDA:0,_RNvMNtNtCsjQ7CiUSXMgx_13identity_core6common11one_or_manyINtB2_9OneOrManyNtNtNtCs9VfPsUr1MEv_19identity_credential10credential10credential10CredentialE3getB1f_
FNDA:0,_RNvXs5_NtNtCsjQ7CiUSXMgx_13identity_core6common11one_or_manyINtB5_9OneOrManyNtNtNtCs9VfPsUr1MEv_19identity_credential10credential6schema6SchemaEINtNtCs4RZURTQcbNt_4core7convert4FromINtNtCslaFPCg94Pel_5alloc3vec3VecB1c_EE4fromB1i_
FNDA:0,_RNvXs5_NtNtCsjQ7CiUSXMgx_13identity_core6common11one_or_manyINtB5_9OneOrManyNtNtNtCs1iZZWPuKeP6_19identity_credential10credential8evidence8EvidenceEINtNtCs4RZURTQcbNt_4core7convert4FromINtNtCslaFPCg94Pel_5alloc3vec3VecB1c_EE4fromCskt00YjyhLiG_13identity_wasm
FNDA:0,_RNvMNtNtCsjQ7CiUSXMgx_13identity_core6common11one_or_manyINtB2_9OneOrManyNtNtCslaFPCg94Pel_5alloc6string6StringE8into_vecCskt00YjyhLiG_13identity_wasm
FNDA:0,_RNvMNtNtCsjQ7CiUSXMgx_13identity_core6common11one_or_manyINtB2_9OneOrManyNtNtNtCs1iZZWPuKeP6_19identity_credential10credential6schema6SchemaE8is_emptyCskt00YjyhLiG_13identity_wasm
FNDA:0,_RNvMNtNtCsjQ7CiUSXMgx_13identity_core6common11one_or_manyINtB2_9OneOrManyNtNtCslaFPCg94Pel_5alloc6string6StringE3getCskt00YjyhLiG_13identity_wasm
FNDA:0,_RNvMNtNtCsjQ7CiUSXMgx_13identity_core6common11one_or_manyINtB2_9OneOrManyNtNtNtCs1iZZWPuKeP6_19identity_credential10credential10credential10CredentialE3getCskt00YjyhLiG_13identity_wasm
FNDA:0,_RNvMNtNtCsjQ7CiUSXMgx_13identity_core6common11one_or_manyINtB2_9OneOrManyNtNtNtCs1iZZWPuKeP6_19identity_credential10credential6status6StatusE8is_emptyCskt00YjyhLiG_13identity_wasm
FNDA:0,_RNvXs_NtNtCsjQ7CiUSXMgx_13identity_core6common11one_or_manyINtB4_9OneOrManyNtNtNtCs1iZZWPuKeP6_19identity_credential10credential7refresh7RefreshENtNtCs4RZURTQcbNt_4core3fmt5Debug3fmtCskt00YjyhLiG_13identity_wasm
FNDA:0,_RNvMNtNtCsjQ7CiUSXMgx_13identity_core6common11one_or_manyINtB2_9OneOrManyNtNtNtCs1iZZWPuKeP6_19identity_credential10credential6policy6PolicyE8is_emptyCskt00YjyhLiG_13identity_wasm
FNDA:0,_RNvXs5_NtNtCsjQ7CiUSXMgx_13identity_core6common11one_or_manyINtB5_9OneOrManyNtNtNtCs1iZZWPuKeP6_19identity_credential10credential10credential10CredentialEINtNtCs4RZURTQcbNt_4core7convert4FromINtNtCslaFPCg94Pel_5alloc3vec3VecB1c_EE4fromCskt00YjyhLiG_13identity_wasm
FNDA:0,_RNvXs_NtNtCsjQ7CiUSXMgx_13identity_core6common11one_or_manyINtB4_9OneOrManyNtNtNtCs1iZZWPuKeP6_19identity_credential10credential6policy6PolicyENtNtCs4RZURTQcbNt_4core3fmt5Debug3fmtCskt00YjyhLiG_13identity_wasm
FNDA:0,_RNvXs5_NtNtCsjQ7CiUSXMgx_13identity_core6common11one_or_manyINtB5_9OneOrManyNtNtCslaFPCg94Pel_5alloc6string6StringEINtNtCs4RZURTQcbNt_4core7convert4FromINtNtB1g_3vec3VecB1c_EE4fromCskt00YjyhLiG_13identity_wasm
FNDA:0,_RNvXs5_NtNtCsjQ7CiUSXMgx_13identity_core6common11one_or_manyINtB5_9OneOrManyNtNtNtCs1iZZWPuKeP6_19identity_credential10credential6policy6PolicyEINtNtCs4RZURTQcbNt_4core7convert4FromINtNtCslaFPCg94Pel_5alloc3vec3VecB1c_EE4fromCskt00YjyhLiG_13identity_wasm
FNDA:0,_RNvXs_NtNtCsjQ7CiUSXMgx_13identity_core6common11one_or_manyINtB4_9OneOrManyNtNtNtCs1iZZWPuKeP6_19identity_credential10credential10credential10CredentialENtNtCs4RZURTQcbNt_4core3fmt5Debug3fmtCskt00YjyhLiG_13identity_wasm
FNDA:0,_RNvMNtNtCsjQ7CiUSXMgx_13identity_core6common11one_or_manyINtB2_9OneOrManyNtNtNtCs1iZZWPuKeP6_19identity_credential10credential7refresh7RefreshE8is_emptyCskt00YjyhLiG_13identity_wasm
FNDA:0,_RNvXs_NtNtCsjQ7CiUSXMgx_13identity_core6common11one_or_manyINtB4_9OneOrManyNtNtB6_7context7ContextENtNtCs4RZURTQcbNt_4core3fmt5Debug3fmtCskt00YjyhLiG_13identity_wasm
FNDA:0,_RNvXs_NtNtCsjQ7CiUSXMgx_13identity_core6common11one_or_manyINtB4_9OneOrManyNtNtNtCs1iZZWPuKeP6_19identity_credential10credential6status6StatusENtNtCs4RZURTQcbNt_4core3fmt5Debug3fmtCskt00YjyhLiG_13identity_wasm
FNDA:0,_RNvXs5_NtNtCsjQ7CiUSXMgx_13identity_core6common11one_or_manyINtB5_9OneOrManyNtNtNtCs1iZZWPuKeP6_19identity_credential10credential7refresh7RefreshEINtNtCs4RZURTQcbNt_4core7convert4FromINtNtCslaFPCg94Pel_5alloc3vec3VecB1c_EE4fromCskt00YjyhLiG_13identity_wasm
FNDA:0,_RNvMNtNtCsjQ7CiUSXMgx_13identity_core6common11one_or_manyINtB2_9OneOrManyNtNtNtCs1iZZWPuKeP6_19identity_credential10credential7subject7SubjectE8into_vecCskt00YjyhLiG_13identity_wasm
FNDA:0,_RNvMNtNtCsjQ7CiUSXMgx_13identity_core6common11one_or_manyINtB2_9OneOrManyNtNtNtCs1iZZWPuKeP6_19identity_credential10credential7subject7SubjectE3getCskt00YjyhLiG_13identity_wasm
FNDA:0,_RNvXs_NtNtCsjQ7CiUSXMgx_13identity_core6common11one_or_manyINtB4_9OneOrManyNtNtNtCs1iZZWPuKeP6_19identity_credential10credential6schema6SchemaENtNtCs4RZURTQcbNt_4core3fmt5Debug3fmtCskt00YjyhLiG_13identity_wasm
FNDA:0,_RNvXs5_NtNtCsjQ7CiUSXMgx_13identity_core6common11one_or_manyINtB5_9OneOrManyNtNtNtCs1iZZWPuKeP6_19identity_credential10credential6schema6SchemaEINtNtCs4RZURTQcbNt_4core7convert4FromINtNtCslaFPCg94Pel_5alloc3vec3VecB1c_EE4fromCskt00YjyhLiG_13identity_wasm
FNDA:0,_RNvMNtNtCsjQ7CiUSXMgx_13identity_core6common11one_or_manyINtB2_9OneOrManyNtNtB4_7context7ContextE3getCskt00YjyhLiG_13identity_wasm
FNDA:0,_RNvMNtNtCsjQ7CiUSXMgx_13identity_core6common11one_or_manyINtB2_9OneOrManyNtNtNtCs1iZZWPuKeP6_19identity_credential10credential10credential10CredentialE8into_vecCskt00YjyhLiG_13identity_wasm
FNDA:0,_RNvXs_NtNtCsjQ7CiUSXMgx_13identity_core6common11one_or_manyINtB4_9OneOrManyNtNtNtCs1iZZWPuKeP6_19identity_credential10credential8evidence8EvidenceENtNtCs4RZURTQcbNt_4core3fmt5Debug3fmtCskt00YjyhLiG_13identity_wasm
FNDA:0,_RNvXs5_NtNtCsjQ7CiUSXMgx_13identity_core6common11one_or_manyINtB5_9OneOrManyNtNtB7_7context7ContextEINtNtCs4RZURTQcbNt_4core7convert4FromINtNtCslaFPCg94Pel_5alloc3vec3VecB1c_EE4fromCskt00YjyhLiG_13identity_wasm
FNDA:0,_RNvXs5_NtNtCsjQ7CiUSXMgx_13identity_core6common11one_or_manyINtB5_9OneOrManyNtNtNtCs1iZZWPuKeP6_19identity_credential10credential6status6StatusEINtNtCs4RZURTQcbNt_4core7convert4FromINtNtCslaFPCg94Pel_5alloc3vec3VecB1c_EE4fromCskt00YjyhLiG_13identity_wasm
FNDA:0,_RNvMNtNtCsjQ7CiUSXMgx_13identity_core6common11one_or_manyINtB2_9OneOrManyNtNtNtCs1iZZWPuKeP6_19identity_credential10credential7subject7SubjectE8is_emptyCskt00YjyhLiG_13identity_wasm
FNDA:0,_RNvXs_NtNtCsjQ7CiUSXMgx_13identity_core6common11one_or_manyINtB4_9OneOrManyNtNtNtCs1iZZWPuKeP6_19identity_credential10credential7subject7SubjectENtNtCs4RZURTQcbNt_4core3fmt5Debug3fmtCskt00YjyhLiG_13identity_wasm
FNDA:0,_RNvXs5_NtNtCsjQ7CiUSXMgx_13identity_core6common11one_or_manyINtB5_9OneOrManyNtNtNtCs1iZZWPuKeP6_19identity_credential10credential7subject7SubjectEINtNtCs4RZURTQcbNt_4core7convert4FromINtNtCslaFPCg94Pel_5alloc3vec3VecB1c_EE4fromCskt00YjyhLiG_13identity_wasm
FNDA:0,_RNvMNtNtCsjQ7CiUSXMgx_13identity_core6common11one_or_manyINtB2_9OneOrManyNtNtNtCs1iZZWPuKeP6_19identity_credential10credential8evidence8EvidenceE8is_emptyCskt00YjyhLiG_13identity_wasm
FNDA:0,_RNvXs_NtNtCsjQ7CiUSXMgx_13identity_core6common11one_or_manyINtB4_9OneOrManyNtNtCslaFPCg94Pel_5alloc6string6StringENtNtCs4RZURTQcbNt_4core3fmt5Debug3fmtCs1iZZWPuKeP6_19identity_credential
FNF:7
FNH:0
DA:25,0
DA:26,0
DA:27,0
DA:28,0
DA:30,0
DA:33,0
DA:34,0
DA:35,0
DA:36,0
DA:38,0
DA:42,0
DA:43,0
DA:44,0
DA:45,0
DA:47,0
DA:93,0
DA:94,0
DA:95,0
DA:96,0
DA:98,0
DA:105,0
DA:106,0
DA:107,0
DA:108,0
DA:110,0
DA:129,0
DA:130,0
DA:131,0
DA:132,0
DA:134,0
DA:156,0
DA:157,0
DA:158,0
DA:160,0
DA:162,0
BRF:0
BFH:0
LF:35
LH:0
end_of_record
SF:identity-core/src/common/timestamp.rs
FN:108,_RNvNtNtNtCsdMIo0gejTVK_13identity_core6common9timestamp5testss_16test_parse_valid
FN:148,_RNvNtNtNtCsdMIo0gejTVK_13identity_core6common9timestamp5testss_19test_json_roundtrip
FN:121,_RNvNtNtNtCsdMIo0gejTVK_13identity_core6common9timestamp5testss_26test_parse_valid_truncated
FN:19,_RNvMNtNtCsdMIo0gejTVK_13identity_core6common9timestampNtB2_9Timestamp8truncate
FN:26,_RNvMNtNtCsdMIo0gejTVK_13identity_core6common9timestampNtB2_9Timestamp5parse
FN:19,_RNvMNtNtCsjQ7CiUSXMgx_13identity_core6common9timestampNtB2_9Timestamp8truncate
FN:26,_RNvMNtNtCsjQ7CiUSXMgx_13identity_core6common9timestampNtB2_9Timestamp5parse
FNDA:0,_RNvNtNtNtCsdMIo0gejTVK_13identity_core6common9timestamp5testss_16test_parse_valid
FNDA:0,_RNvNtNtNtCsdMIo0gejTVK_13identity_core6common9timestamp5testss_19test_json_roundtrip
FNDA:0,_RNvNtNtNtCsdMIo0gejTVK_13identity_core6common9timestamp5testss_26test_parse_valid_truncated
FNDA:0,_RNvMNtNtCsdMIo0gejTVK_13identity_core6common9timestampNtB2_9Timestamp8truncate
FNDA:0,_RNvMNtNtCsdMIo0gejTVK_13identity_core6common9timestampNtB2_9Timestamp5parse
FNDA:0,_RNvMNtNtCsjQ7CiUSXMgx_13identity_core6common9timestampNtB2_9Timestamp8truncate
FNDA:0,_RNvMNtNtCsjQ7CiUSXMgx_13identity_core6common9timestampNtB2_9Timestamp5parse
FNF:6
FNH:0
DA:19,0
DA:26,0
DA:27,0
DA:28,0
DA:29,0
DA:30,0
DA:31,0
DA:39,0
DA:40,0
DA:41,0
DA:48,0
DA:49,0
DA:50,0
DA:51,0
DA:55,0
DA:56,0
DA:57,0
DA:67,0
DA:68,0
DA:69,0
DA:81,0
DA:82,0
DA:83,0
DA:97,0
DA:98,0
DA:99,0
DA:108,0
DA:109,0
DA:110,0
DA:112,0
DA:114,0
DA:115,0
DA:117,0
DA:118,0
DA:121,0
DA:122,0
DA:123,0
DA:124,0
DA:126,0
DA:127,0
DA:148,0
DA:149,0
DA:150,0
DA:151,0
DA:153,0
DA:154,0
BRF:0
BFH:0
LF:51
LH:0
end_of_record
SF:identity-core/src/common/url.rs
FN:19,_RNvXs6_NtNtCsjQ7CiUSXMgx_13identity_core6common3urlNtB5_3UrlNtNtCskxz0FW6fCEL_13identity_diff6traits4Diff9into_diff
FN:97,_RNvXs6_NtNtCsjQ7CiUSXMgx_13identity_core6common3urlNtB5_3UrlNtNtCskxz0FW6fCEL_13identity_diff6traits4Diff5merge
FN:104,_RNvXs6_NtNtCsjQ7CiUSXMgx_13identity_core6common3urlNtB5_3UrlNtNtCskxz0FW6fCEL_13identity_diff6traits4Diff9from_diff
FNDA:0,_RNvXs6_NtNtCsjQ7CiUSXMgx_13identity_core6common3urlNtB5_3UrlNtNtCskxz0FW6fCEL_13identity_diff6traits4Diff9into_diff
FNDA:0,_RNvXs6_NtNtCsjQ7CiUSXMgx_13identity_core6common3urlNtB5_3UrlNtNtCskxz0FW6fCEL_13identity_diff6traits4Diff5merge
FNDA:0,_RNvXs6_NtNtCsjQ7CiUSXMgx_13identity_core6common3urlNtB5_3UrlNtNtCskxz0FW6fCEL_13identity_diff6traits4Diff9from_diff
FNF:3
FNH:0
DA:19,0
DA:36,0
DA:37,0
DA:38,0
DA:85,0
DA:86,0
DA:87,0
DA:97,0
DA:98,0
DA:99,0
DA:100,0
DA:101,0
DA:102,0
DA:104,0
DA:105,0
DA:106,0
DA:108,0
DA:109,0
DA:110,0
BRF:0
BFH:0
LF:19
LH:0
end_of_record
SF:identity-core/src/crypto/key/collection.rs
FN:150,_RINvMNtNtNtCsdMIo0gejTVK_13identity_core6crypto3key10collectionNtB3_13KeyCollection10merkle_keyNtNtNtCsgcTqQQq5qGi_6crypto6hashes7blake2b10Blake2b256EB9_
FN:38,_RINvMNtNtNtCsdMIo0gejTVK_13identity_core6crypto3key10collectionNtB3_13KeyCollection13from_iteratorINtNtNtCslaFPCg94Pel_5alloc3vec9into_iter8IntoIterTNtNtB5_3key9PublicKeyNtB2p_9SecretKeyEEEB9_
FN:38,_RINvMNtNtNtCsdMIo0gejTVK_13identity_core6crypto3key10collectionNtB3_13KeyCollection13from_iteratorINtNtNtNtCs4RZURTQcbNt_4core4iter8adapters3zip3ZipINtNtNtCslaFPCg94Pel_5alloc3vec9into_iter8IntoIterNtNtB5_3key9PublicKeyEIB2n_NtB3c_9SecretKeyEEEB9_
FN:150,_RINvMNtNtNtCsdMIo0gejTVK_13identity_core6crypto3key10collectionNtB3_13KeyCollection10merkle_keyNtNtCsfaahmxv2G8K_4sha26sha2566Sha256EB9_
FN:205,_RNvNtNtNtNtCsdMIo0gejTVK_13identity_core6crypto3key10collection5testss_12test_ed25519
FN:65,_RNvMNtNtNtCsdMIo0gejTVK_13identity_core6crypto3key10collectionNtB2_13KeyCollection3new
FN:94,_RNvMNtNtNtCsjQ7CiUSXMgx_13identity_core6crypto3key10collectionNtB2_13KeyCollection10public_ref
FN:28,_RNvXs1_NtNtNtCsjQ7CiUSXMgx_13identity_core6crypto3key10collectionNtB5_13KeyCollectionNtNtNtNtCs4RZURTQcbNt_4core4iter6traits7collect12IntoIterator9into_iter
FN:65,_RNvMNtNtNtCsjQ7CiUSXMgx_13identity_core6crypto3key10collectionNtB2_13KeyCollection3new
FN:104,_RNvMNtNtNtCsjQ7CiUSXMgx_13identity_core6crypto3key10collectionNtB2_13KeyCollection10secret_ref
FN:110,_RNvMNtNtNtCsjQ7CiUSXMgx_13identity_core6crypto3key10collectionNtB2_13KeyCollection7keypair
FN:38,_RINvMNtNtNtCsjQ7CiUSXMgx_13identity_core6crypto3key10collectionNtB3_13KeyCollection13from_iteratorINtNtNtCslaFPCg94Pel_5alloc3vec9into_iter8IntoIterTNtNtB5_3key9PublicKeyNtB2p_9SecretKeyEEEB9_
FN:38,_RINvMNtNtNtCsjQ7CiUSXMgx_13identity_core6crypto3key10collectionNtB3_13KeyCollection13from_iteratorINtNtNtNtCs4RZURTQcbNt_4core4iter8adapters7flatten7FlatMapINtNtNtB1H_5slice4iter4IterNtNtNtCskt00YjyhLiG_13identity_wasm6crypto14key_collection7KeyDataEINtNtB1H_6option6OptionTNtNtB5_3key9PublicKeyNtB4q_9SecretKeyEENCNvMs8_B2X_NtB2X_13KeyCollection9from_json0EEB31_
FNDA:0,_RINvMNtNtNtCsdMIo0gejTVK_13identity_core6crypto3key10collectionNtB3_13KeyCollection10merkle_keyNtNtNtCsgcTqQQq5qGi_6crypto6hashes7blake2b10Blake2b256EB9_
FNDA:0,_RINvMNtNtNtCsdMIo0gejTVK_13identity_core6crypto3key10collectionNtB3_13KeyCollection13from_iteratorINtNtNtCslaFPCg94Pel_5alloc3vec9into_iter8IntoIterTNtNtB5_3key9PublicKeyNtB2p_9SecretKeyEEEB9_
FNDA:0,_RINvMNtNtNtCsdMIo0gejTVK_13identity_core6crypto3key10collectionNtB3_13KeyCollection13from_iteratorINtNtNtNtCs4RZURTQcbNt_4core4iter8adapters3zip3ZipINtNtNtCslaFPCg94Pel_5alloc3vec9into_iter8IntoIterNtNtB5_3key9PublicKeyEIB2n_NtB3c_9SecretKeyEEEB9_
FNDA:0,_RINvMNtNtNtCsdMIo0gejTVK_13identity_core6crypto3key10collectionNtB3_13KeyCollection10merkle_keyNtNtCsfaahmxv2G8K_4sha26sha2566Sha256EB9_
FNDA:0,_RNvNtNtNtNtCsdMIo0gejTVK_13identity_core6crypto3key10collection5testss_12test_ed25519
FNDA:0,_RNvMNtNtNtCsdMIo0gejTVK_13identity_core6crypto3key10collectionNtB2_13KeyCollection3new
FNDA:0,_RNvMNtNtNtCsjQ7CiUSXMgx_13identity_core6crypto3key10collectionNtB2_13KeyCollection10public_ref
FNDA:0,_RNvXs1_NtNtNtCsjQ7CiUSXMgx_13identity_core6crypto3key10collectionNtB5_13KeyCollectionNtNtNtNtCs4RZURTQcbNt_4core4iter6traits7collect12IntoIterator9into_iter
FNDA:0,_RNvMNtNtNtCsjQ7CiUSXMgx_13identity_core6crypto3key10collectionNtB2_13KeyCollection3new
FNDA:0,_RNvMNtNtNtCsjQ7CiUSXMgx_13identity_core6crypto3key10collectionNtB2_13KeyCollection10secret_ref
FNDA:0,_RNvMNtNtNtCsjQ7CiUSXMgx_13identity_core6crypto3key10collectionNtB2_13KeyCollection7keypair
FNDA:0,_RINvMNtNtNtCsjQ7CiUSXMgx_13identity_core6crypto3key10collectionNtB3_13KeyCollection13from_iteratorINtNtNtCslaFPCg94Pel_5alloc3vec9into_iter8IntoIterTNtNtB5_3key9PublicKeyNtB2p_9SecretKeyEEEB9_
FNDA:0,_RINvMNtNtNtCsjQ7CiUSXMgx_13identity_core6crypto3key10collectionNtB3_13KeyCollection13from_iteratorINtNtNtNtCs4RZURTQcbNt_4core4iter8adapters7flatten7FlatMapINtNtNtB1H_5slice4iter4IterNtNtNtCskt00YjyhLiG_13identity_wasm6crypto14key_collection7KeyDataEINtNtB1H_6option6OptionTNtNtB5_3key9PublicKeyNtB4q_9SecretKeyEENCNvMs8_B2X_NtB2X_13KeyCollection9from_json0EEB31_
FNF:8
FNH:0
DA:28,0
DA:38,0
DA:39,0
DA:40,0
DA:41,0
DA:42,0
DA:43,0
DA:44,0
DA:45,0
DA:46,0
DA:47,0
DA:48,0
DA:49,0
DA:50,0
DA:51,0
DA:52,0
DA:53,0
DA:54,0
DA:55,0
DA:56,0
DA:57,0
DA:65,0
DA:66,0
DA:67,0
DA:70,0
DA:71,0
DA:94,0
DA:95,0
DA:96,0
DA:104,0
DA:105,0
DA:106,0
DA:110,0
DA:111,0
DA:113,0
DA:115,0
DA:133,0
DA:134,0
DA:135,0
DA:136,0
DA:137,0
DA:138,0
DA:141,0
DA:142,0
DA:143,0
DA:144,0
DA:145,0
DA:146,0
DA:150,0
DA:151,0
DA:152,0
DA:153,0
DA:154,0
DA:155,0
DA:156,0
DA:158,0
DA:159,0
DA:163,0
DA:164,0
DA:165,0
DA:166,0
DA:167,0
DA:168,0
DA:177,0
DA:178,0
DA:179,0
DA:186,0
DA:187,0
DA:188,0
DA:195,0
DA:196,0
DA:197,0
DA:205,0
DA:206,0
DA:208,0
DA:209,0
DA:211,0
DA:212,0
DA:214,0
DA:215,0
DA:217,0
DA:218,0
DA:219,0
DA:222,0
DA:223,0
DA:225,0
DA:227,0
DA:228,0
DA:230,0
DA:231,0
DA:232,0
DA:234,0
BRF:0
BFH:0
LF:101
LH:0
end_of_record
SF:identity-core/src/crypto/key/key.rs
FN:17,_RNvXs0_NtNtNtCsdMIo0gejTVK_13identity_core6crypto3key3keyNtB5_9PublicKeyNtNtNtCs4RZURTQcbNt_4core3ops4drop4Drop4drop
FNDA:0,_RNvXs0_NtNtNtCsdMIo0gejTVK_13identity_core6crypto3key3keyNtB5_9PublicKeyNtNtNtCs4RZURTQcbNt_4core3ops4drop4Drop4drop
FNF:1
FNH:0
DA:17,0
DA:23,0
DA:29,0
BRF:0
BFH:0
LF:3
LH:0
end_of_record
SF:identity-core/src/crypto/key/pair.rs
FN:91,_RNvNtNtNtNtCsdMIo0gejTVK_13identity_core6crypto3key4pair5testss_16test_new_ed25519
FN:28,_RNvMNtNtNtCsdMIo0gejTVK_13identity_core6crypto3key4pairNtB2_7KeyPair3new
FN:14,_RNvXs0_NtNtNtCsjQ7CiUSXMgx_13identity_core6crypto3key4pairNtB5_7KeyPairNtCs5LV527K1fLI_7zeroize7Zeroize7zeroize
FN:28,_RNvMNtNtNtCsjQ7CiUSXMgx_13identity_core6crypto3key4pairNtB2_7KeyPair3new
FNDA:0,_RNvNtNtNtNtCsdMIo0gejTVK_13identity_core6crypto3key4pair5testss_16test_new_ed25519
FNDA:0,_RNvMNtNtNtCsdMIo0gejTVK_13identity_core6crypto3key4pairNtB2_7KeyPair3new
FNDA:0,_RNvXs0_NtNtNtCsjQ7CiUSXMgx_13identity_core6crypto3key4pairNtB5_7KeyPairNtCs5LV527K1fLI_7zeroize7Zeroize7zeroize
FNDA:0,_RNvMNtNtNtCsjQ7CiUSXMgx_13identity_core6crypto3key4pairNtB2_7KeyPair3new
FNF:3
FNH:0
DA:14,0
DA:28,0
DA:29,0
DA:30,0
DA:33,0
DA:34,0
DA:70,0
DA:71,0
DA:72,0
DA:73,0
DA:91,0
DA:92,0
DA:93,0
DA:94,0
DA:95,0
DA:96,0
BRF:0
BFH:0
LF:16
LH:0
end_of_record
SF:identity-core/src/crypto/key/type_.rs
FN:14,_RNvXs7_NtNtNtCsdMIo0gejTVK_13identity_core6crypto3key5type_NtB5_7KeyTypeNtNtCs4RZURTQcbNt_4core3fmt5Debug3fmt
FN:14,_RNvXs7_NtNtNtCsjQ7CiUSXMgx_13identity_core6crypto3key5type_NtB5_7KeyTypeNtNtCs4RZURTQcbNt_4core3fmt5Debug3fmt
FN:43,_RNvXs_NtNtNtCsjQ7CiUSXMgx_13identity_core6crypto3key5type_NtB4_7KeyTypeNtNtNtCs4RZURTQcbNt_4core3str6traits7FromStr8from_str
FNDA:0,_RNvXs7_NtNtNtCsdMIo0gejTVK_13identity_core6crypto3key5type_NtB5_7KeyTypeNtNtCs4RZURTQcbNt_4core3fmt5Debug3fmt
FNDA:0,_RNvXs7_NtNtNtCsjQ7CiUSXMgx_13identity_core6crypto3key5type_NtB5_7KeyTypeNtNtCs4RZURTQcbNt_4core3fmt5Debug3fmt
FNDA:0,_RNvXs_NtNtNtCsjQ7CiUSXMgx_13identity_core6crypto3key5type_NtB4_7KeyTypeNtNtNtCs4RZURTQcbNt_4core3str6traits7FromStr8from_str
FNF:2
FNH:0
DA:14,0
DA:23,0
DA:24,0
DA:25,0
DA:26,0
DA:27,0
DA:30,0
DA:31,0
DA:32,0
DA:33,0
DA:34,0
DA:35,0
DA:36,0
DA:37,0
DA:43,0
DA:44,0
DA:45,0
DA:47,0
DA:49,0
BRF:0
BFH:0
LF:16
LH:0
end_of_record
SF:identity-core/src/crypto/merkle_key/base.rs
FN:63,_RINvNtNtNtNtCsdMIo0gejTVK_13identity_core6crypto10merkle_key4base5tests10assert_tagNtNtCsfaahmxv2G8K_4sha26sha2566Sha256NtNtNtB8_9signature7ed255197Ed25519EBa_
FN:63,_RINvNtNtNtNtCsdMIo0gejTVK_13identity_core6crypto10merkle_key4base5tests10assert_tagNtNtNtCsgcTqQQq5qGi_6crypto6hashes7blake2b10Blake2b256NtNtNtB8_9signature7ed255197Ed25519EBa_
FN:12,_RNvMNtNtNtCsdMIo0gejTVK_13identity_core6crypto10merkle_key4baseNtB2_9MerkleKey3tag
FN:23,_RNvMNtNtNtCsdMIo0gejTVK_13identity_core6crypto10merkle_key4baseNtB2_9MerkleKey12extract_tags
FN:12,_RNvMNtNtNtCsjQ7CiUSXMgx_13identity_core6crypto10merkle_key4baseNtB2_9MerkleKey3tag
FN:23,_RNvMNtNtNtCsjQ7CiUSXMgx_13identity_core6crypto10merkle_key4baseNtB2_9MerkleKey12extract_tags
FNDA:0,_RINvNtNtNtNtCsdMIo0gejTVK_13identity_core6crypto10merkle_key4base5tests10assert_tagNtNtCsfaahmxv2G8K_4sha26sha2566Sha256NtNtNtB8_9signature7ed255197Ed25519EBa_
FNDA:0,_RINvNtNtNtNtCsdMIo0gejTVK_13identity_core6crypto10merkle_key4base5tests10assert_tagNtNtNtCsgcTqQQq5qGi_6crypto6hashes7blake2b10Blake2b256NtNtNtB8_9signature7ed255197Ed25519EBa_
FNDA:0,_RNvMNtNtNtCsdMIo0gejTVK_13identity_core6crypto10merkle_key4baseNtB2_9MerkleKey3tag
FNDA:0,_RNvMNtNtNtCsdMIo0gejTVK_13identity_core6crypto10merkle_key4baseNtB2_9MerkleKey12extract_tags
FNDA:0,_RNvMNtNtNtCsjQ7CiUSXMgx_13identity_core6crypto10merkle_key4baseNtB2_9MerkleKey3tag
FNDA:0,_RNvMNtNtNtCsjQ7CiUSXMgx_13identity_core6crypto10merkle_key4baseNtB2_9MerkleKey12extract_tags
FNF:3
FNH:0
DA:12,0
DA:23,0
DA:24,0
DA:25,0
DA:27,0
DA:28,0
DA:31,0
DA:32,0
DA:33,0
DA:34,0
DA:35,0
DA:36,0
DA:37,0
DA:38,0
DA:39,0
DA:40,0
DA:41,0
DA:43,0
DA:44,0
DA:45,0
DA:46,0
DA:47,0
DA:48,0
DA:49,0
DA:63,0
DA:64,0
DA:65,0
DA:66,0
DA:67,0
DA:68,0
DA:69,0
DA:70,0
DA:71,0
DA:73,0
DA:74,0
DA:75,0
BRF:0
BFH:0
LF:36
LH:0
end_of_record
SF:identity-core/src/crypto/merkle_key/signer.rs
FN:124,_RINvXs1_NtNtNtCsdMIo0gejTVK_13identity_core6crypto10merkle_key6signerINtB6_12MerkleSignerNtNtCsfaahmxv2G8K_4sha26sha2566Sha256NtNtNtBa_9signature7ed255197Ed25519EINtNtNtB24_6traits4core6SignerINtB6_10SigningKeyB1p_EE4signRShEBc_
FN:124,_RINvXs1_NtNtNtCsdMIo0gejTVK_13identity_core6crypto10merkle_key6signerINtB6_12MerkleSignerNtNtNtCsgcTqQQq5qGi_6crypto6hashes7blake2b10Blake2b256NtNtNtBa_9signature7ed255197Ed25519EINtNtNtB2l_6traits4core6SignerINtB6_10SigningKeyB1p_EE4signRShEBc_
FN:124,_RINvXs1_NtNtNtCsjQ7CiUSXMgx_13identity_core6crypto10merkle_key6signerINtB6_12MerkleSignerNtNtCsfaahmxv2G8K_4sha26sha2566Sha256NtNtNtBa_9signature7ed255197Ed25519EINtNtNtB24_6traits4core6SignerINtB6_10SigningKeyB1p_EE4signQNtNtNtCs3sQMjYUjz43_12identity_did10verifiable5tests4ThatEB3E_
FN:124,_RINvXs1_NtNtNtCsjQ7CiUSXMgx_13identity_core6crypto10merkle_key6signerINtB6_12MerkleSignerNtNtNtCsgcTqQQq5qGi_6crypto6hashes7blake2b10Blake2b256NtNtNtBa_9signature7ed255197Ed25519EINtNtNtB2l_6traits4core6SignerINtB6_10SigningKeyB1p_EE4signQNtNtNtCs3sQMjYUjz43_12identity_did10verifiable5tests4ThatEB3V_
FN:124,_RINvXs1_NtNtNtCsjQ7CiUSXMgx_13identity_core6crypto10merkle_key6signerINtB6_12MerkleSignerNtNtCsfaahmxv2G8K_4sha26sha2566Sha256NtNtNtBa_9signature7ed255197Ed25519EINtNtNtB24_6traits4core6SignerINtB6_10SigningKeyB1p_EE4signQNtNtNtCs9VfPsUr1MEv_19identity_credential10credential10credential10CredentialEB3E_
FN:124,_RINvXs1_NtNtNtCsjQ7CiUSXMgx_13identity_core6crypto10merkle_key6signerINtB6_12MerkleSignerNtNtNtCsgcTqQQq5qGi_6crypto6hashes7blake2b10Blake2b256NtNtNtBa_9signature7ed255197Ed25519EINtNtNtB2l_6traits4core6SignerINtB6_10SigningKeyB1p_EE4signQNtNtNtCs9VfPsUr1MEv_19identity_credential10credential10credential10CredentialEB3V_
FN:124,_RINvXs1_NtNtNtCsjQ7CiUSXMgx_13identity_core6crypto10merkle_key6signerINtB6_12MerkleSignerNtNtCsfaahmxv2G8K_4sha26sha2566Sha256NtNtNtBa_9signature7ed255197Ed25519EINtNtNtB24_6traits4core6SignerINtB6_10SigningKeyB1p_EE4signQNtNtNtCsdwuhiSxlwM7_12identity_did10verifiable10properties10PropertiesECskt00YjyhLiG_13identity_wasm
FN:124,_RINvXs1_NtNtNtCsjQ7CiUSXMgx_13identity_core6crypto10merkle_key6signerINtB6_12MerkleSignerNtNtNtCsgcTqQQq5qGi_6crypto6hashes7blake2b10Blake2b256NtNtNtBa_9signature7ed255197Ed25519EINtNtNtB2l_6traits4core6SignerINtB6_10SigningKeyB1p_EE4signQNtNtNtCsdwuhiSxlwM7_12identity_did10verifiable10properties10PropertiesECskt00YjyhLiG_13identity_wasm
FN:124,_RINvXs1_NtNtNtCsjQ7CiUSXMgx_13identity_core6crypto10merkle_key6signerINtB6_12MerkleSignerNtNtCsfaahmxv2G8K_4sha26sha2566Sha256NtNtNtBa_9signature7ed255197Ed25519EINtNtNtB24_6traits4core6SignerINtB6_10SigningKeyB1p_EE4signQNtNtNtNtCsapfZL3txtKN_13identity_iota3did3doc4diff12DocumentDiffEB3G_
FN:124,_RINvXs1_NtNtNtCsjQ7CiUSXMgx_13identity_core6crypto10merkle_key6signerINtB6_12MerkleSignerNtNtNtCsgcTqQQq5qGi_6crypto6hashes7blake2b10Blake2b256NtNtNtBa_9signature7ed255197Ed25519EINtNtNtB2l_6traits4core6SignerINtB6_10SigningKeyB1p_EE4signQNtNtNtNtCsapfZL3txtKN_13identity_iota3did3doc4diff12DocumentDiffEB3X_
FNDA:0,_RINvXs1_NtNtNtCsdMIo0gejTVK_13identity_core6crypto10merkle_key6signerINtB6_12MerkleSignerNtNtCsfaahmxv2G8K_4sha26sha2566Sha256NtNtNtBa_9signature7ed255197Ed25519EINtNtNtB24_6traits4core6SignerINtB6_10SigningKeyB1p_EE4signRShEBc_
FNDA:0,_RINvXs1_NtNtNtCsdMIo0gejTVK_13identity_core6crypto10merkle_key6signerINtB6_12MerkleSignerNtNtNtCsgcTqQQq5qGi_6crypto6hashes7blake2b10Blake2b256NtNtNtBa_9signature7ed255197Ed25519EINtNtNtB2l_6traits4core6SignerINtB6_10SigningKeyB1p_EE4signRShEBc_
FNDA:0,_RINvXs1_NtNtNtCsjQ7CiUSXMgx_13identity_core6crypto10merkle_key6signerINtB6_12MerkleSignerNtNtCsfaahmxv2G8K_4sha26sha2566Sha256NtNtNtBa_9signature7ed255197Ed25519EINtNtNtB24_6traits4core6SignerINtB6_10SigningKeyB1p_EE4signQNtNtNtCs3sQMjYUjz43_12identity_did10verifiable5tests4ThatEB3E_
FNDA:0,_RINvXs1_NtNtNtCsjQ7CiUSXMgx_13identity_core6crypto10merkle_key6signerINtB6_12MerkleSignerNtNtNtCsgcTqQQq5qGi_6crypto6hashes7blake2b10Blake2b256NtNtNtBa_9signature7ed255197Ed25519EINtNtNtB2l_6traits4core6SignerINtB6_10SigningKeyB1p_EE4signQNtNtNtCs3sQMjYUjz43_12identity_did10verifiable5tests4ThatEB3V_
FNDA:0,_RINvXs1_NtNtNtCsjQ7CiUSXMgx_13identity_core6crypto10merkle_key6signerINtB6_12MerkleSignerNtNtCsfaahmxv2G8K_4sha26sha2566Sha256NtNtNtBa_9signature7ed255197Ed25519EINtNtNtB24_6traits4core6SignerINtB6_10SigningKeyB1p_EE4signQNtNtNtCs9VfPsUr1MEv_19identity_credential10credential10credential10CredentialEB3E_
FNDA:0,_RINvXs1_NtNtNtCsjQ7CiUSXMgx_13identity_core6crypto10merkle_key6signerINtB6_12MerkleSignerNtNtNtCsgcTqQQq5qGi_6crypto6hashes7blake2b10Blake2b256NtNtNtBa_9signature7ed255197Ed25519EINtNtNtB2l_6traits4core6SignerINtB6_10SigningKeyB1p_EE4signQNtNtNtCs9VfPsUr1MEv_19identity_credential10credential10credential10CredentialEB3V_
FNDA:0,_RINvXs1_NtNtNtCsjQ7CiUSXMgx_13identity_core6crypto10merkle_key6signerINtB6_12MerkleSignerNtNtCsfaahmxv2G8K_4sha26sha2566Sha256NtNtNtBa_9signature7ed255197Ed25519EINtNtNtB24_6traits4core6SignerINtB6_10SigningKeyB1p_EE4signQNtNtNtCsdwuhiSxlwM7_12identity_did10verifiable10properties10PropertiesECskt00YjyhLiG_13identity_wasm
FNDA:0,_RINvXs1_NtNtNtCsjQ7CiUSXMgx_13identity_core6crypto10merkle_key6signerINtB6_12MerkleSignerNtNtNtCsgcTqQQq5qGi_6crypto6hashes7blake2b10Blake2b256NtNtNtBa_9signature7ed255197Ed25519EINtNtNtB2l_6traits4core6SignerINtB6_10SigningKeyB1p_EE4signQNtNtNtCsdwuhiSxlwM7_12identity_did10verifiable10properties10PropertiesECskt00YjyhLiG_13identity_wasm
FNDA:0,_RINvXs1_NtNtNtCsjQ7CiUSXMgx_13identity_core6crypto10merkle_key6signerINtB6_12MerkleSignerNtNtCsfaahmxv2G8K_4sha26sha2566Sha256NtNtNtBa_9signature7ed255197Ed25519EINtNtNtB24_6traits4core6SignerINtB6_10SigningKeyB1p_EE4signQNtNtNtNtCsapfZL3txtKN_13identity_iota3did3doc4diff12DocumentDiffEB3G_
FNDA:0,_RINvXs1_NtNtNtCsjQ7CiUSXMgx_13identity_core6crypto10merkle_key6signerINtB6_12MerkleSignerNtNtNtCsgcTqQQq5qGi_6crypto6hashes7blake2b10Blake2b256NtNtNtBa_9signature7ed255197Ed25519EINtNtNtB2l_6traits4core6SignerINtB6_10SigningKeyB1p_EE4signQNtNtNtNtCsapfZL3txtKN_13identity_iota3did3doc4diff12DocumentDiffEB3X_
FNF:1
FNH:0
DA:124,0
DA:125,0
DA:126,0
DA:127,0
DA:128,0
DA:129,0
DA:130,0
DA:131,0
DA:132,0
DA:133,0
DA:134,0
BRF:0
BFH:0
LF:11
LH:0
end_of_record
SF:identity-core/src/crypto/merkle_key/tag.rs
FN:5,_RNvXs8_NtNtNtCsdMIo0gejTVK_13identity_core6crypto10merkle_key3tagNtB5_9MerkleTagNtNtCs4RZURTQcbNt_4core3fmt5Debug3fmt
FN:5,_RNvXs8_NtNtNtCsjQ7CiUSXMgx_13identity_core6crypto10merkle_key3tagNtB5_9MerkleTagNtNtCs4RZURTQcbNt_4core3fmt5Debug3fmt
FNDA:0,_RNvXs8_NtNtNtCsdMIo0gejTVK_13identity_core6crypto10merkle_key3tagNtB5_9MerkleTagNtNtCs4RZURTQcbNt_4core3fmt5Debug3fmt
FNDA:0,_RNvXs8_NtNtNtCsjQ7CiUSXMgx_13identity_core6crypto10merkle_key3tagNtB5_9MerkleTagNtNtCs4RZURTQcbNt_4core3fmt5Debug3fmt
FNF:1
FNH:0
DA:5,0
DA:26,0
DA:27,0
DA:28,0
BRF:0
BFH:0
LF:4
LH:0
end_of_record
SF:identity-core/src/crypto/merkle_key/verifier.rs
FN:26,_RNvNtNtNtCsdMIo0gejTVK_13identity_core6crypto10merkle_key8verifier22expand_signature_value
FN:89,_RINvXs0_NtNtNtCsdMIo0gejTVK_13identity_core6crypto10merkle_key8verifierINtB6_14MerkleVerifierNtNtCsfaahmxv2G8K_4sha26sha2566Sha256NtNtNtBa_9signature7ed255197Ed25519EINtNtNtB28_6traits4core8VerifierNtB6_15VerificationKeyE6verifyRShEBc_
FN:89,_RINvXs0_NtNtNtCsdMIo0gejTVK_13identity_core6crypto10merkle_key8verifierINtB6_14MerkleVerifierNtNtNtCsgcTqQQq5qGi_6crypto6hashes7blake2b10Blake2b256NtNtNtBa_9signature7ed255197Ed25519EINtNtNtB2p_6traits4core8VerifierNtB6_15VerificationKeyE6verifyRShEBc_
FN:125,_RINvNtNtNtCsdMIo0gejTVK_13identity_core6crypto10merkle_key8verifier20decompose_public_keyNtNtCsfaahmxv2G8K_4sha26sha2566Sha256NtNtNtB6_9signature7ed255197Ed25519EB8_
FN:125,_RINvNtNtNtCsdMIo0gejTVK_13identity_core6crypto10merkle_key8verifier20decompose_public_keyNtNtNtCsgcTqQQq5qGi_6crypto6hashes7blake2b10Blake2b256NtNtNtB6_9signature7ed255197Ed25519EB8_
FN:125,_RINvNtNtNtCsjQ7CiUSXMgx_13identity_core6crypto10merkle_key8verifier20decompose_public_keyNtNtCsfaahmxv2G8K_4sha26sha2566Sha256NtNtNtB6_9signature7ed255197Ed25519ECs3sQMjYUjz43_12identity_did
FN:125,_RINvNtNtNtCsjQ7CiUSXMgx_13identity_core6crypto10merkle_key8verifier20decompose_public_keyNtNtNtCsgcTqQQq5qGi_6crypto6hashes7blake2b10Blake2b256NtNtNtB6_9signature7ed255197Ed25519ECs3sQMjYUjz43_12identity_did
FN:89,_RINvXs0_NtNtNtCsjQ7CiUSXMgx_13identity_core6crypto10merkle_key8verifierINtB6_14MerkleVerifierNtNtCsfaahmxv2G8K_4sha26sha2566Sha256NtNtNtBa_9signature7ed255197Ed25519EINtNtNtB28_6traits4core8VerifierNtB6_15VerificationKeyE6verifyRNtNtNtCs3sQMjYUjz43_12identity_did10verifiable5tests4ThatEB3L_
FN:89,_RINvXs0_NtNtNtCsjQ7CiUSXMgx_13identity_core6crypto10merkle_key8verifierINtB6_14MerkleVerifierNtNtNtCsgcTqQQq5qGi_6crypto6hashes7blake2b10Blake2b256NtNtNtBa_9signature7ed255197Ed25519EINtNtNtB2p_6traits4core8VerifierNtB6_15VerificationKeyE6verifyRNtNtNtCs3sQMjYUjz43_12identity_did10verifiable5tests4ThatEB42_
FN:26,_RNvNtNtNtCsjQ7CiUSXMgx_13identity_core6crypto10merkle_key8verifier22expand_signature_value
FN:89,_RINvXs0_NtNtNtCsjQ7CiUSXMgx_13identity_core6crypto10merkle_key8verifierINtB6_14MerkleVerifierNtNtNtCsgcTqQQq5qGi_6crypto6hashes7blake2b10Blake2b256NtNtNtBa_9signature7ed255197Ed25519EINtNtNtB2p_6traits4core8VerifierNtB6_15VerificationKeyE6verifyRNtNtNtCs1iZZWPuKeP6_19identity_credential12presentation12presentation12PresentationECskt00YjyhLiG_13identity_wasm
FN:89,_RINvXs0_NtNtNtCsjQ7CiUSXMgx_13identity_core6crypto10merkle_key8verifierINtB6_14MerkleVerifierNtNtNtCsgcTqQQq5qGi_6crypto6hashes7blake2b10Blake2b256NtNtNtBa_9signature7ed255197Ed25519EINtNtNtB2p_6traits4core8VerifierNtB6_15VerificationKeyE6verifyRNtNtNtCsdwuhiSxlwM7_12identity_did10verifiable10properties10PropertiesECskt00YjyhLiG_13identity_wasm
FN:89,_RINvXs0_NtNtNtCsjQ7CiUSXMgx_13identity_core6crypto10merkle_key8verifierINtB6_14MerkleVerifierNtNtCsfaahmxv2G8K_4sha26sha2566Sha256NtNtNtBa_9signature7ed255197Ed25519EINtNtNtB28_6traits4core8VerifierNtB6_15VerificationKeyE6verifyRNtNtNtCs1iZZWPuKeP6_19identity_credential12presentation12presentation12PresentationECskt00YjyhLiG_13identity_wasm
FN:89,_RINvXs0_NtNtNtCsjQ7CiUSXMgx_13identity_core6crypto10merkle_key8verifierINtB6_14MerkleVerifierNtNtCsfaahmxv2G8K_4sha26sha2566Sha256NtNtNtBa_9signature7ed255197Ed25519EINtNtNtB28_6traits4core8VerifierNtB6_15VerificationKeyE6verifyRNtNtNtCsdwuhiSxlwM7_12identity_did10verifiable10properties10PropertiesECskt00YjyhLiG_13identity_wasm
FN:89,_RINvXs0_NtNtNtCsjQ7CiUSXMgx_13identity_core6crypto10merkle_key8verifierINtB6_14MerkleVerifierNtNtNtCsgcTqQQq5qGi_6crypto6hashes7blake2b10Blake2b256NtNtNtBa_9signature7ed255197Ed25519EINtNtNtB2p_6traits4core8VerifierNtB6_15VerificationKeyE6verifyRNtNtNtCs1iZZWPuKeP6_19identity_credential10credential10credential10CredentialECskt00YjyhLiG_13identity_wasm
FN:89,_RINvXs0_NtNtNtCsjQ7CiUSXMgx_13identity_core6crypto10merkle_key8verifierINtB6_14MerkleVerifierNtNtCsfaahmxv2G8K_4sha26sha2566Sha256NtNtNtBa_9signature7ed255197Ed25519EINtNtNtB28_6traits4core8VerifierNtB6_15VerificationKeyE6verifyRNtNtNtCs1iZZWPuKeP6_19identity_credential10credential10credential10CredentialECskt00YjyhLiG_13identity_wasm
FN:125,_RINvNtNtNtCsjQ7CiUSXMgx_13identity_core6crypto10merkle_key8verifier20decompose_public_keyNtNtNtCsgcTqQQq5qGi_6crypto6hashes7blake2b10Blake2b256NtNtNtB6_9signature7ed255197Ed25519ECsapfZL3txtKN_13identity_iota
FN:89,_RINvXs0_NtNtNtCsjQ7CiUSXMgx_13identity_core6crypto10merkle_key8verifierINtB6_14MerkleVerifierNtNtNtCsgcTqQQq5qGi_6crypto6hashes7blake2b10Blake2b256NtNtNtBa_9signature7ed255197Ed25519EINtNtNtB2p_6traits4core8VerifierNtB6_15VerificationKeyE6verifyRNtNtNtNtCsapfZL3txtKN_13identity_iota3did3doc8document8DocumentEB44_
FN:89,_RINvXs0_NtNtNtCsjQ7CiUSXMgx_13identity_core6crypto10merkle_key8verifierINtB6_14MerkleVerifierNtNtCsfaahmxv2G8K_4sha26sha2566Sha256NtNtNtBa_9signature7ed255197Ed25519EINtNtNtB28_6traits4core8VerifierNtB6_15VerificationKeyE6verifyRNtNtNtNtCsapfZL3txtKN_13identity_iota3did3doc8document8DocumentEB3N_
FN:125,_RINvNtNtNtCsjQ7CiUSXMgx_13identity_core6crypto10merkle_key8verifier20decompose_public_keyNtNtCsfaahmxv2G8K_4sha26sha2566Sha256NtNtNtB6_9signature7ed255197Ed25519ECsapfZL3txtKN_13identity_iota
FN:89,_RINvXs0_NtNtNtCsjQ7CiUSXMgx_13identity_core6crypto10merkle_key8verifierINtB6_14MerkleVerifierNtNtNtCsgcTqQQq5qGi_6crypto6hashes7blake2b10Blake2b256NtNtNtBa_9signature7ed255197Ed25519EINtNtNtB2p_6traits4core8VerifierNtB6_15VerificationKeyE6verifyRNtNtNtNtCsapfZL3txtKN_13identity_iota3did3doc4diff12DocumentDiffEB44_
FN:89,_RINvXs0_NtNtNtCsjQ7CiUSXMgx_13identity_core6crypto10merkle_key8verifierINtB6_14MerkleVerifierNtNtCsfaahmxv2G8K_4sha26sha2566Sha256NtNtNtBa_9signature7ed255197Ed25519EINtNtNtB28_6traits4core8VerifierNtB6_15VerificationKeyE6verifyRNtNtNtNtCsapfZL3txtKN_13identity_iota3did3doc4diff12DocumentDiffEB3N_
FNDA:0,_RNvNtNtNtCsdMIo0gejTVK_13identity_core6crypto10merkle_key8verifier22expand_signature_value
FNDA:0,_RINvXs0_NtNtNtCsdMIo0gejTVK_13identity_core6crypto10merkle_key8verifierINtB6_14MerkleVerifierNtNtCsfaahmxv2G8K_4sha26sha2566Sha256NtNtNtBa_9signature7ed255197Ed25519EINtNtNtB28_6traits4core8VerifierNtB6_15VerificationKeyE6verifyRShEBc_
FNDA:0,_RINvXs0_NtNtNtCsdMIo0gejTVK_13identity_core6crypto10merkle_key8verifierINtB6_14MerkleVerifierNtNtNtCsgcTqQQq5qGi_6crypto6hashes7blake2b10Blake2b256NtNtNtBa_9signature7ed255197Ed25519EINtNtNtB2p_6traits4core8VerifierNtB6_15VerificationKeyE6verifyRShEBc_
FNDA:0,_RINvNtNtNtCsdMIo0gejTVK_13identity_core6crypto10merkle_key8verifier20decompose_public_keyNtNtCsfaahmxv2G8K_4sha26sha2566Sha256NtNtNtB6_9signature7ed255197Ed25519EB8_
FNDA:0,_RINvNtNtNtCsdMIo0gejTVK_13identity_core6crypto10merkle_key8verifier20decompose_public_keyNtNtNtCsgcTqQQq5qGi_6crypto6hashes7blake2b10Blake2b256NtNtNtB6_9signature7ed255197Ed25519EB8_
FNDA:0,_RINvNtNtNtCsjQ7CiUSXMgx_13identity_core6crypto10merkle_key8verifier20decompose_public_keyNtNtCsfaahmxv2G8K_4sha26sha2566Sha256NtNtNtB6_9signature7ed255197Ed25519ECs3sQMjYUjz43_12identity_did
FNDA:0,_RINvNtNtNtCsjQ7CiUSXMgx_13identity_core6crypto10merkle_key8verifier20decompose_public_keyNtNtNtCsgcTqQQq5qGi_6crypto6hashes7blake2b10Blake2b256NtNtNtB6_9signature7ed255197Ed25519ECs3sQMjYUjz43_12identity_did
FNDA:0,_RINvXs0_NtNtNtCsjQ7CiUSXMgx_13identity_core6crypto10merkle_key8verifierINtB6_14MerkleVerifierNtNtCsfaahmxv2G8K_4sha26sha2566Sha256NtNtNtBa_9signature7ed255197Ed25519EINtNtNtB28_6traits4core8VerifierNtB6_15VerificationKeyE6verifyRNtNtNtCs3sQMjYUjz43_12identity_did10verifiable5tests4ThatEB3L_
FNDA:0,_RINvXs0_NtNtNtCsjQ7CiUSXMgx_13identity_core6crypto10merkle_key8verifierINtB6_14MerkleVerifierNtNtNtCsgcTqQQq5qGi_6crypto6hashes7blake2b10Blake2b256NtNtNtBa_9signature7ed255197Ed25519EINtNtNtB2p_6traits4core8VerifierNtB6_15VerificationKeyE6verifyRNtNtNtCs3sQMjYUjz43_12identity_did10verifiable5tests4ThatEB42_
FNDA:0,_RNvNtNtNtCsjQ7CiUSXMgx_13identity_core6crypto10merkle_key8verifier22expand_signature_value
FNDA:0,_RINvXs0_NtNtNtCsjQ7CiUSXMgx_13identity_core6crypto10merkle_key8verifierINtB6_14MerkleVerifierNtNtNtCsgcTqQQq5qGi_6crypto6hashes7blake2b10Blake2b256NtNtNtBa_9signature7ed255197Ed25519EINtNtNtB2p_6traits4core8VerifierNtB6_15VerificationKeyE6verifyRNtNtNtCs1iZZWPuKeP6_19identity_credential12presentation12presentation12PresentationECskt00YjyhLiG_13identity_wasm
FNDA:0,_RINvXs0_NtNtNtCsjQ7CiUSXMgx_13identity_core6crypto10merkle_key8verifierINtB6_14MerkleVerifierNtNtNtCsgcTqQQq5qGi_6crypto6hashes7blake2b10Blake2b256NtNtNtBa_9signature7ed255197Ed25519EINtNtNtB2p_6traits4core8VerifierNtB6_15VerificationKeyE6verifyRNtNtNtCsdwuhiSxlwM7_12identity_did10verifiable10properties10PropertiesECskt00YjyhLiG_13identity_wasm
FNDA:0,_RINvXs0_NtNtNtCsjQ7CiUSXMgx_13identity_core6crypto10merkle_key8verifierINtB6_14MerkleVerifierNtNtCsfaahmxv2G8K_4sha26sha2566Sha256NtNtNtBa_9signature7ed255197Ed25519EINtNtNtB28_6traits4core8VerifierNtB6_15VerificationKeyE6verifyRNtNtNtCs1iZZWPuKeP6_19identity_credential12presentation12presentation12PresentationECskt00YjyhLiG_13identity_wasm
FNDA:0,_RINvXs0_NtNtNtCsjQ7CiUSXMgx_13identity_core6crypto10merkle_key8verifierINtB6_14MerkleVerifierNtNtCsfaahmxv2G8K_4sha26sha2566Sha256NtNtNtBa_9signature7ed255197Ed25519EINtNtNtB28_6traits4core8VerifierNtB6_15VerificationKeyE6verifyRNtNtNtCsdwuhiSxlwM7_12identity_did10verifiable10properties10PropertiesECskt00YjyhLiG_13identity_wasm
FNDA:0,_RINvXs0_NtNtNtCsjQ7CiUSXMgx_13identity_core6crypto10merkle_key8verifierINtB6_14MerkleVerifierNtNtNtCsgcTqQQq5qGi_6crypto6hashes7blake2b10Blake2b256NtNtNtBa_9signature7ed255197Ed25519EINtNtNtB2p_6traits4core8VerifierNtB6_15VerificationKeyE6verifyRNtNtNtCs1iZZWPuKeP6_19identity_credential10credential10credential10CredentialECskt00YjyhLiG_13identity_wasm
FNDA:0,_RINvXs0_NtNtNtCsjQ7CiUSXMgx_13identity_core6crypto10merkle_key8verifierINtB6_14MerkleVerifierNtNtCsfaahmxv2G8K_4sha26sha2566Sha256NtNtNtBa_9signature7ed255197Ed25519EINtNtNtB28_6traits4core8VerifierNtB6_15VerificationKeyE6verifyRNtNtNtCs1iZZWPuKeP6_19identity_credential10credential10credential10CredentialECskt00YjyhLiG_13identity_wasm
FNDA:0,_RINvNtNtNtCsjQ7CiUSXMgx_13identity_core6crypto10merkle_key8verifier20decompose_public_keyNtNtNtCsgcTqQQq5qGi_6crypto6hashes7blake2b10Blake2b256NtNtNtB6_9signature7ed255197Ed25519ECsapfZL3txtKN_13identity_iota
FNDA:0,_RINvXs0_NtNtNtCsjQ7CiUSXMgx_13identity_core6crypto10merkle_key8verifierINtB6_14MerkleVerifierNtNtNtCsgcTqQQq5qGi_6crypto6hashes7blake2b10Blake2b256NtNtNtBa_9signature7ed255197Ed25519EINtNtNtB2p_6traits4core8VerifierNtB6_15VerificationKeyE6verifyRNtNtNtNtCsapfZL3txtKN_13identity_iota3did3doc8document8DocumentEB44_
FNDA:0,_RINvXs0_NtNtNtCsjQ7CiUSXMgx_13identity_core6crypto10merkle_key8verifierINtB6_14MerkleVerifierNtNtCsfaahmxv2G8K_4sha26sha2566Sha256NtNtNtBa_9signature7ed255197Ed25519EINtNtNtB28_6traits4core8VerifierNtB6_15VerificationKeyE6verifyRNtNtNtNtCsapfZL3txtKN_13identity_iota3did3doc8document8DocumentEB3N_
FNDA:0,_RINvNtNtNtCsjQ7CiUSXMgx_13identity_core6crypto10merkle_key8verifier20decompose_public_keyNtNtCsfaahmxv2G8K_4sha26sha2566Sha256NtNtNtB6_9signature7ed255197Ed25519ECsapfZL3txtKN_13identity_iota
FNDA:0,_RINvXs0_NtNtNtCsjQ7CiUSXMgx_13identity_core6crypto10merkle_key8verifierINtB6_14MerkleVerifierNtNtNtCsgcTqQQq5qGi_6crypto6hashes7blake2b10Blake2b256NtNtNtBa_9signature7ed255197Ed25519EINtNtNtB2p_6traits4core8VerifierNtB6_15VerificationKeyE6verifyRNtNtNtNtCsapfZL3txtKN_13identity_iota3did3doc4diff12DocumentDiffEB44_
FNDA:0,_RINvXs0_NtNtNtCsjQ7CiUSXMgx_13identity_core6crypto10merkle_key8verifierINtB6_14MerkleVerifierNtNtCsfaahmxv2G8K_4sha26sha2566Sha256NtNtNtBa_9signature7ed255197Ed25519EINtNtNtB28_6traits4core8VerifierNtB6_15VerificationKeyE6verifyRNtNtNtNtCsapfZL3txtKN_13identity_iota3did3doc4diff12DocumentDiffEB3N_
FNF:3
FNH:0
DA:26,0
DA:47,0
DA:48,0
DA:49,0
DA:57,0
DA:58,0
DA:59,0
DA:66,0
DA:89,0
DA:90,0
DA:91,0
DA:92,0
DA:93,0
DA:95,0
DA:97,0
DA:98,0
DA:99,0
DA:100,0
DA:101,0
DA:102,0
DA:103,0
DA:104,0
DA:105,0
DA:109,0
DA:110,0
DA:111,0
DA:112,0
DA:113,0
DA:116,0
DA:118,0
DA:119,0
DA:125,0
DA:126,0
DA:127,0
DA:128,0
DA:129,0
DA:130,0
DA:133,0
DA:134,0
DA:135,0
DA:136,0
DA:137,0
DA:138,0
DA:139,0
DA:140,0
DA:141,0
DA:142,0
DA:143,0
DA:144,0
DA:145,0
DA:146,0
DA:147,0
DA:148,0
DA:150,0
DA:151,0
DA:152,0
DA:155,0
DA:156,0
DA:157,0
DA:160,0
DA:161,0
DA:162,0
DA:165,0
DA:168,0
DA:170,0
DA:171,0
BRF:0
BFH:0
LF:105
LH:0
end_of_record
SF:identity-core/src/crypto/merkle_tree/hash.rs
FN:22,_RNvMNtNtNtCsdMIo0gejTVK_13identity_core6crypto11merkle_tree4hashINtB2_4HashNtNtNtCsgcTqQQq5qGi_6crypto6hashes7blake2b10Blake2b256E10from_sliceB8_
FN:22,_RNvMNtNtNtCsdMIo0gejTVK_13identity_core6crypto11merkle_tree4hashINtB2_4HashNtNtCsfaahmxv2G8K_4sha26sha2566Sha256E10from_sliceB8_
FN:22,_RNvMNtNtNtCsjQ7CiUSXMgx_13identity_core6crypto11merkle_tree4hashINtB2_4HashNtNtNtCsgcTqQQq5qGi_6crypto6hashes7blake2b10Blake2b256E10from_sliceCs3sQMjYUjz43_12identity_did
FN:22,_RNvMNtNtNtCsjQ7CiUSXMgx_13identity_core6crypto11merkle_tree4hashINtB2_4HashNtNtCsfaahmxv2G8K_4sha26sha2566Sha256E10from_sliceCs3sQMjYUjz43_12identity_did
FN:22,_RNvMNtNtNtCsjQ7CiUSXMgx_13identity_core6crypto11merkle_tree4hashINtB2_4HashNtNtCsfaahmxv2G8K_4sha26sha2566Sha256E10from_sliceCsapfZL3txtKN_13identity_iota
FN:22,_RNvMNtNtNtCsjQ7CiUSXMgx_13identity_core6crypto11merkle_tree4hashINtB2_4HashNtNtNtCsgcTqQQq5qGi_6crypto6hashes7blake2b10Blake2b256E10from_sliceCsapfZL3txtKN_13identity_iota
FNDA:0,_RNvMNtNtNtCsdMIo0gejTVK_13identity_core6crypto11merkle_tree4hashINtB2_4HashNtNtNtCsgcTqQQq5qGi_6crypto6hashes7blake2b10Blake2b256E10from_sliceB8_
FNDA:0,_RNvMNtNtNtCsdMIo0gejTVK_13identity_core6crypto11merkle_tree4hashINtB2_4HashNtNtCsfaahmxv2G8K_4sha26sha2566Sha256E10from_sliceB8_
FNDA:0,_RNvMNtNtNtCsjQ7CiUSXMgx_13identity_core6crypto11merkle_tree4hashINtB2_4HashNtNtNtCsgcTqQQq5qGi_6crypto6hashes7blake2b10Blake2b256E10from_sliceCs3sQMjYUjz43_12identity_did
FNDA:0,_RNvMNtNtNtCsjQ7CiUSXMgx_13identity_core6crypto11merkle_tree4hashINtB2_4HashNtNtCsfaahmxv2G8K_4sha26sha2566Sha256E10from_sliceCs3sQMjYUjz43_12identity_did
FNDA:0,_RNvMNtNtNtCsjQ7CiUSXMgx_13identity_core6crypto11merkle_tree4hashINtB2_4HashNtNtCsfaahmxv2G8K_4sha26sha2566Sha256E10from_sliceCsapfZL3txtKN_13identity_iota
FNDA:0,_RNvMNtNtNtCsjQ7CiUSXMgx_13identity_core6crypto11merkle_tree4hashINtB2_4HashNtNtNtCsgcTqQQq5qGi_6crypto6hashes7blake2b10Blake2b256E10from_sliceCsapfZL3txtKN_13identity_iota
FNF:1
FNH:0
DA:22,0
DA:23,0
DA:24,0
DA:25,0
DA:26,0
DA:27,0
DA:28,0
DA:29,0
BRF:0
BFH:0
LF:8
LH:0
end_of_record
SF:identity-core/src/crypto/merkle_tree/merkle.rs
FN:134,_RNvNtNtNtNtCsdMIo0gejTVK_13identity_core6crypto11merkle_tree6merkle5testss_28test_compute_proof_and_index
FN:157,_RNvNtNtNtNtCsdMIo0gejTVK_13identity_core6crypto11merkle_tree6merkle5testss_9test_root
FN:52,_RINvNvNtNtNtCsdMIo0gejTVK_13identity_core6crypto11merkle_tree6merkle20compute_merkle_proof10___generateNtNtCsfaahmxv2G8K_4sha26sha2566Sha256INtNtB6_4hash4HashB1D_EEBa_
FN:52,_RINvNvNtNtNtCsdMIo0gejTVK_13identity_core6crypto11merkle_tree6merkle20compute_merkle_proof10___generateNtNtCsfaahmxv2G8K_4sha26sha2566Sha256NtNtNtB8_3key3key9PublicKeyEBa_
FN:46,_RINvNtNtNtCsdMIo0gejTVK_13identity_core6crypto11merkle_tree6merkle20compute_merkle_proofNtNtNtCsgcTqQQq5qGi_6crypto6hashes7blake2b10Blake2b256NtNtNtB6_3key3key9PublicKeyEB8_
FN:23,_RINvNvNtNtNtCsdMIo0gejTVK_13identity_core6crypto11merkle_tree6merkle19compute_merkle_root10___generateNtNtCsfaahmxv2G8K_4sha26sha2566Sha256NtNtNtB8_3key3key9PublicKeyEBa_
FN:23,_RINvNvNtNtNtCsdMIo0gejTVK_13identity_core6crypto11merkle_tree6merkle19compute_merkle_root10___generateNtNtCsfaahmxv2G8K_4sha26sha2566Sha256INtNtB6_4hash4HashB1C_EEBa_
FN:52,_RINvNvNtNtNtCsdMIo0gejTVK_13identity_core6crypto11merkle_tree6merkle20compute_merkle_proof10___generateNtNtNtCsgcTqQQq5qGi_6crypto6hashes7blake2b10Blake2b256NtNtNtB8_3key3key9PublicKeyEBa_
FN:46,_RINvNtNtNtCsdMIo0gejTVK_13identity_core6crypto11merkle_tree6merkle20compute_merkle_proofNtNtCsfaahmxv2G8K_4sha26sha2566Sha256INtNtB4_4hash4HashB1o_EEB8_
FN:46,_RINvNtNtNtCsdMIo0gejTVK_13identity_core6crypto11merkle_tree6merkle20compute_merkle_proofNtNtCsfaahmxv2G8K_4sha26sha2566Sha256NtNtNtB6_3key3key9PublicKeyEB8_
FN:23,_RINvNvNtNtNtCsdMIo0gejTVK_13identity_core6crypto11merkle_tree6merkle19compute_merkle_root10___generateNtNtNtCsgcTqQQq5qGi_6crypto6hashes7blake2b10Blake2b256NtNtNtB8_3key3key9PublicKeyEBa_
FN:46,_RINvNtNtNtCsjQ7CiUSXMgx_13identity_core6crypto11merkle_tree6merkle20compute_merkle_proofNtNtCsfaahmxv2G8K_4sha26sha2566Sha256NtNtNtB6_3key3key9PublicKeyECs3sQMjYUjz43_12identity_did
FN:52,_RINvNvNtNtNtCsjQ7CiUSXMgx_13identity_core6crypto11merkle_tree6merkle20compute_merkle_proof10___generateNtNtCsfaahmxv2G8K_4sha26sha2566Sha256NtNtNtB8_3key3key9PublicKeyECs3sQMjYUjz43_12identity_did
FN:23,_RINvNvNtNtNtCsjQ7CiUSXMgx_13identity_core6crypto11merkle_tree6merkle19compute_merkle_root10___generateNtNtCsfaahmxv2G8K_4sha26sha2566Sha256NtNtNtB8_3key3key9PublicKeyECs3sQMjYUjz43_12identity_did
FN:46,_RINvNtNtNtCsjQ7CiUSXMgx_13identity_core6crypto11merkle_tree6merkle20compute_merkle_proofNtNtCsfaahmxv2G8K_4sha26sha2566Sha256NtNtNtB6_3key3key9PublicKeyECskt00YjyhLiG_13identity_wasm
FN:23,_RINvNvNtNtNtCsjQ7CiUSXMgx_13identity_core6crypto11merkle_tree6merkle19compute_merkle_root10___generateNtNtCsfaahmxv2G8K_4sha26sha2566Sha256NtNtNtB8_3key3key9PublicKeyECskt00YjyhLiG_13identity_wasm
FN:52,_RINvNvNtNtNtCsjQ7CiUSXMgx_13identity_core6crypto11merkle_tree6merkle20compute_merkle_proof10___generateNtNtCsfaahmxv2G8K_4sha26sha2566Sha256NtNtNtB8_3key3key9PublicKeyECskt00YjyhLiG_13identity_wasm
FNDA:0,_RNvNtNtNtNtCsdMIo0gejTVK_13identity_core6crypto11merkle_tree6merkle5testss_28test_compute_proof_and_index
FNDA:0,_RNvNtNtNtNtCsdMIo0gejTVK_13identity_core6crypto11merkle_tree6merkle5testss_9test_root
FNDA:0,_RINvNvNtNtNtCsdMIo0gejTVK_13identity_core6crypto11merkle_tree6merkle20compute_merkle_proof10___generateNtNtCsfaahmxv2G8K_4sha26sha2566Sha256INtNtB6_4hash4HashB1D_EEBa_
FNDA:0,_RINvNvNtNtNtCsdMIo0gejTVK_13identity_core6crypto11merkle_tree6merkle20compute_merkle_proof10___generateNtNtCsfaahmxv2G8K_4sha26sha2566Sha256NtNtNtB8_3key3key9PublicKeyEBa_
FNDA:0,_RINvNtNtNtCsdMIo0gejTVK_13identity_core6crypto11merkle_tree6merkle20compute_merkle_proofNtNtNtCsgcTqQQq5qGi_6crypto6hashes7blake2b10Blake2b256NtNtNtB6_3key3key9PublicKeyEB8_
FNDA:0,_RINvNvNtNtNtCsdMIo0gejTVK_13identity_core6crypto11merkle_tree6merkle19compute_merkle_root10___generateNtNtCsfaahmxv2G8K_4sha26sha2566Sha256NtNtNtB8_3key3key9PublicKeyEBa_
FNDA:0,_RINvNvNtNtNtCsdMIo0gejTVK_13identity_core6crypto11merkle_tree6merkle19compute_merkle_root10___generateNtNtCsfaahmxv2G8K_4sha26sha2566Sha256INtNtB6_4hash4HashB1C_EEBa_
FNDA:0,_RINvNvNtNtNtCsdMIo0gejTVK_13identity_core6crypto11merkle_tree6merkle20compute_merkle_proof10___generateNtNtNtCsgcTqQQq5qGi_6crypto6hashes7blake2b10Blake2b256NtNtNtB8_3key3key9PublicKeyEBa_
FNDA:0,_RINvNtNtNtCsdMIo0gejTVK_13identity_core6crypto11merkle_tree6merkle20compute_merkle_proofNtNtCsfaahmxv2G8K_4sha26sha2566Sha256INtNtB4_4hash4HashB1o_EEB8_
FNDA:0,_RINvNtNtNtCsdMIo0gejTVK_13identity_core6crypto11merkle_tree6merkle20compute_merkle_proofNtNtCsfaahmxv2G8K_4sha26sha2566Sha256NtNtNtB6_3key3key9PublicKeyEB8_
FNDA:0,_RINvNvNtNtNtCsdMIo0gejTVK_13identity_core6crypto11merkle_tree6merkle19compute_merkle_root10___generateNtNtNtCsgcTqQQq5qGi_6crypto6hashes7blake2b10Blake2b256NtNtNtB8_3key3key9PublicKeyEBa_
FNDA:0,_RINvNtNtNtCsjQ7CiUSXMgx_13identity_core6crypto11merkle_tree6merkle20compute_merkle_proofNtNtCsfaahmxv2G8K_4sha26sha2566Sha256NtNtNtB6_3key3key9PublicKeyECs3sQMjYUjz43_12identity_did
FNDA:0,_RINvNvNtNtNtCsjQ7CiUSXMgx_13identity_core6crypto11merkle_tree6merkle20compute_merkle_proof10___generateNtNtCsfaahmxv2G8K_4sha26sha2566Sha256NtNtNtB8_3key3key9PublicKeyECs3sQMjYUjz43_12identity_did
FNDA:0,_RINvNvNtNtNtCsjQ7CiUSXMgx_13identity_core6crypto11merkle_tree6merkle19compute_merkle_root10___generateNtNtCsfaahmxv2G8K_4sha26sha2566Sha256NtNtNtB8_3key3key9PublicKeyECs3sQMjYUjz43_12identity_did
FNDA:0,_RINvNtNtNtCsjQ7CiUSXMgx_13identity_core6crypto11merkle_tree6merkle20compute_merkle_proofNtNtCsfaahmxv2G8K_4sha26sha2566Sha256NtNtNtB6_3key3key9PublicKeyECskt00YjyhLiG_13identity_wasm
FNDA:0,_RINvNvNtNtNtCsjQ7CiUSXMgx_13identity_core6crypto11merkle_tree6merkle19compute_merkle_root10___generateNtNtCsfaahmxv2G8K_4sha26sha2566Sha256NtNtNtB8_3key3key9PublicKeyECskt00YjyhLiG_13identity_wasm
FNDA:0,_RINvNvNtNtNtCsjQ7CiUSXMgx_13identity_core6crypto11merkle_tree6merkle20compute_merkle_proof10___generateNtNtCsfaahmxv2G8K_4sha26sha2566Sha256NtNtNtB8_3key3key9PublicKeyECskt00YjyhLiG_13identity_wasm
FNF:5
FNH:0
DA:23,0
DA:24,0
DA:25,0
DA:26,0
DA:27,0
DA:28,0
DA:29,0
DA:30,0
DA:31,0
DA:32,0
DA:33,0
DA:34,0
DA:35,0
DA:36,0
DA:37,0
DA:40,0
DA:46,0
DA:47,0
DA:48,0
DA:49,0
DA:50,0
DA:51,0
DA:52,0
DA:53,0
DA:54,0
DA:55,0
DA:56,0
DA:57,0
DA:58,0
DA:59,0
DA:60,0
DA:61,0
DA:62,0
DA:63,0
DA:64,0
DA:65,0
DA:66,0
DA:67,0
DA:68,0
DA:69,0
DA:70,0
DA:71,0
DA:72,0
DA:73,0
DA:74,0
DA:75,0
DA:76,0
DA:77,0
DA:78,0
DA:79,0
DA:80,0
DA:81,0
DA:82,0
DA:83,0
DA:84,0
DA:85,0
DA:86,0
DA:87,0
DA:88,0
DA:89,0
DA:90,0
DA:93,0
DA:134,0
DA:135,0
DA:136,0
DA:137,0
DA:138,0
DA:139,0
DA:140,0
DA:142,0
DA:143,0
DA:145,0
DA:146,0
DA:147,0
DA:148,0
DA:151,0
DA:153,0
DA:157,0
DA:158,0
DA:159,0
DA:160,0
DA:161,0
DA:162,0
DA:163,0
DA:164,0
DA:165,0
DA:166,0
DA:167,0
DA:168,0
DA:169,0
DA:170,0
DA:171,0
DA:172,0
DA:173,0
DA:174,0
DA:175,0
DA:177,0
DA:178,0
DA:179,0
DA:180,0
DA:182,0
DA:183,0
DA:185,0
DA:186,0
BRF:0
BFH:0
LF:122
LH:0
end_of_record
SF:identity-core/src/crypto/merkle_tree/node.rs
FN:21,_RNvNtNtNtNtCsdMIo0gejTVK_13identity_core6crypto11merkle_tree4node5testss_9test_hash
FN:34,_RNvMNtNtNtCsdMIo0gejTVK_13identity_core6crypto11merkle_tree4nodeINtB2_4NodeNtNtCsfaahmxv2G8K_4sha26sha2566Sha256E9hash_withB8_
FN:34,_RNvMNtNtNtCsdMIo0gejTVK_13identity_core6crypto11merkle_tree4nodeINtB2_4NodeNtNtNtCsgcTqQQq5qGi_6crypto6hashes7blake2b10Blake2b256E9hash_withB8_
FN:34,_RNvMNtNtNtCsjQ7CiUSXMgx_13identity_core6crypto11merkle_tree4nodeINtB2_4NodeNtNtCsfaahmxv2G8K_4sha26sha2566Sha256E9hash_withCs3sQMjYUjz43_12identity_did
FN:34,_RNvMNtNtNtCsjQ7CiUSXMgx_13identity_core6crypto11merkle_tree4nodeINtB2_4NodeNtNtNtCsgcTqQQq5qGi_6crypto6hashes7blake2b10Blake2b256E9hash_withCs3sQMjYUjz43_12identity_did
FN:34,_RNvMNtNtNtCsjQ7CiUSXMgx_13identity_core6crypto11merkle_tree4nodeINtB2_4NodeNtNtCsfaahmxv2G8K_4sha26sha2566Sha256E9hash_withCsapfZL3txtKN_13identity_iota
FN:34,_RNvMNtNtNtCsjQ7CiUSXMgx_13identity_core6crypto11merkle_tree4nodeINtB2_4NodeNtNtNtCsgcTqQQq5qGi_6crypto6hashes7blake2b10Blake2b256E9hash_withCsapfZL3txtKN_13identity_iota
FNDA:0,_RNvNtNtNtNtCsdMIo0gejTVK_13identity_core6crypto11merkle_tree4node5testss_9test_hash
FNDA:0,_RNvMNtNtNtCsdMIo0gejTVK_13identity_core6crypto11merkle_tree4nodeINtB2_4NodeNtNtCsfaahmxv2G8K_4sha26sha2566Sha256E9hash_withB8_
FNDA:0,_RNvMNtNtNtCsdMIo0gejTVK_13identity_core6crypto11merkle_tree4nodeINtB2_4NodeNtNtNtCsgcTqQQq5qGi_6crypto6hashes7blake2b10Blake2b256E9hash_withB8_
FNDA:0,_RNvMNtNtNtCsjQ7CiUSXMgx_13identity_core6crypto11merkle_tree4nodeINtB2_4NodeNtNtCsfaahmxv2G8K_4sha26sha2566Sha256E9hash_withCs3sQMjYUjz43_12identity_did
FNDA:0,_RNvMNtNtNtCsjQ7CiUSXMgx_13identity_core6crypto11merkle_tree4nodeINtB2_4NodeNtNtNtCsgcTqQQq5qGi_6crypto6hashes7blake2b10Blake2b256E9hash_withCs3sQMjYUjz43_12identity_did
FNDA:0,_RNvMNtNtNtCsjQ7CiUSXMgx_13identity_core6crypto11merkle_tree4nodeINtB2_4NodeNtNtCsfaahmxv2G8K_4sha26sha2566Sha256E9hash_withCsapfZL3txtKN_13identity_iota
FNDA:0,_RNvMNtNtNtCsjQ7CiUSXMgx_13identity_core6crypto11merkle_tree4nodeINtB2_4NodeNtNtNtCsgcTqQQq5qGi_6crypto6hashes7blake2b10Blake2b256E9hash_withCsapfZL3txtKN_13identity_iota
FNF:2
FNH:0
DA:21,0
DA:22,0
DA:23,0
DA:24,0
DA:26,0
DA:34,0
DA:35,0
DA:36,0
DA:37,0
DA:39,0
DA:46,0
DA:47,0
DA:48,0
DA:49,0
DA:51,0
DA:55,0
DA:56,0
DA:57,0
DA:58,0
DA:60,0
DA:73,0
DA:74,0
DA:75,0
DA:76,0
DA:77,0
DA:79,0
DA:80,0
DA:82,0
DA:83,0
DA:84,0
BRF:0
BFH:0
LF:30
LH:0
end_of_record
SF:identity-core/src/crypto/merkle_tree/proof.rs
FN:59,_RNvMNtNtNtCsdMIo0gejTVK_13identity_core6crypto11merkle_tree5proofINtB2_5ProofNtNtCsfaahmxv2G8K_4sha26sha2566Sha256E9root_withB8_
FN:32,_RNvMNtNtNtCsdMIo0gejTVK_13identity_core6crypto11merkle_tree5proofINtB2_5ProofNtNtCsfaahmxv2G8K_4sha26sha2566Sha256E5indexB8_
FN:33,_RNCNvMNtNtNtCsdMIo0gejTVK_13identity_core6crypto11merkle_tree5proofINtB4_5ProofNtNtCsfaahmxv2G8K_4sha26sha2566Sha256E5index0Ba_
FN:33,_RNCNvMNtNtNtCsdMIo0gejTVK_13identity_core6crypto11merkle_tree5proofINtB4_5ProofNtNtNtCsgcTqQQq5qGi_6crypto6hashes7blake2b10Blake2b256E5index0Ba_
FN:59,_RNvMNtNtNtCsdMIo0gejTVK_13identity_core6crypto11merkle_tree5proofINtB2_5ProofNtNtNtCsgcTqQQq5qGi_6crypto6hashes7blake2b10Blake2b256E9root_withB8_
FN:32,_RNvMNtNtNtCsdMIo0gejTVK_13identity_core6crypto11merkle_tree5proofINtB2_5ProofNtNtNtCsgcTqQQq5qGi_6crypto6hashes7blake2b10Blake2b256E5indexB8_
FN:32,_RNvMNtNtNtCsjQ7CiUSXMgx_13identity_core6crypto11merkle_tree5proofINtB2_5ProofNtNtCsfaahmxv2G8K_4sha26sha2566Sha256E5indexCs3sQMjYUjz43_12identity_did
FN:59,_RNvMNtNtNtCsjQ7CiUSXMgx_13identity_core6crypto11merkle_tree5proofINtB2_5ProofNtNtNtCsgcTqQQq5qGi_6crypto6hashes7blake2b10Blake2b256E9root_withCs3sQMjYUjz43_12identity_did
FN:59,_RNvMNtNtNtCsjQ7CiUSXMgx_13identity_core6crypto11merkle_tree5proofINtB2_5ProofNtNtCsfaahmxv2G8K_4sha26sha2566Sha256E9root_withCs3sQMjYUjz43_12identity_did
FN:32,_RNvMNtNtNtCsjQ7CiUSXMgx_13identity_core6crypto11merkle_tree5proofINtB2_5ProofNtNtNtCsgcTqQQq5qGi_6crypto6hashes7blake2b10Blake2b256E5indexCs3sQMjYUjz43_12identity_did
FN:33,_RNCNvMNtNtNtCsjQ7CiUSXMgx_13identity_core6crypto11merkle_tree5proofINtB4_5ProofNtNtCsfaahmxv2G8K_4sha26sha2566Sha256E5index0Cs3sQMjYUjz43_12identity_did
FN:33,_RNCNvMNtNtNtCsjQ7CiUSXMgx_13identity_core6crypto11merkle_tree5proofINtB4_5ProofNtNtNtCsgcTqQQq5qGi_6crypto6hashes7blake2b10Blake2b256E5index0Cs3sQMjYUjz43_12identity_did
FN:32,_RNvMNtNtNtCsjQ7CiUSXMgx_13identity_core6crypto11merkle_tree5proofINtB2_5ProofNtNtCsfaahmxv2G8K_4sha26sha2566Sha256E5indexCsapfZL3txtKN_13identity_iota
FN:59,_RNvMNtNtNtCsjQ7CiUSXMgx_13identity_core6crypto11merkle_tree5proofINtB2_5ProofNtNtNtCsgcTqQQq5qGi_6crypto6hashes7blake2b10Blake2b256E9root_withCsapfZL3txtKN_13identity_iota
FN:33,_RNCNvMNtNtNtCsjQ7CiUSXMgx_13identity_core6crypto11merkle_tree5proofINtB4_5ProofNtNtNtCsgcTqQQq5qGi_6crypto6hashes7blake2b10Blake2b256E5index0CsapfZL3txtKN_13identity_iota
FN:59,_RNvMNtNtNtCsjQ7CiUSXMgx_13identity_core6crypto11merkle_tree5proofINtB2_5ProofNtNtCsfaahmxv2G8K_4sha26sha2566Sha256E9root_withCsapfZL3txtKN_13identity_iota
FN:32,_RNvMNtNtNtCsjQ7CiUSXMgx_13identity_core6crypto11merkle_tree5proofINtB2_5ProofNtNtNtCsgcTqQQq5qGi_6crypto6hashes7blake2b10Blake2b256E5indexCsapfZL3txtKN_13identity_iota
FN:33,_RNCNvMNtNtNtCsjQ7CiUSXMgx_13identity_core6crypto11merkle_tree5proofINtB4_5ProofNtNtCsfaahmxv2G8K_4sha26sha2566Sha256E5index0CsapfZL3txtKN_13identity_iota
FNDA:0,_RNvMNtNtNtCsdMIo0gejTVK_13identity_core6crypto11merkle_tree5proofINtB2_5ProofNtNtCsfaahmxv2G8K_4sha26sha2566Sha256E9root_withB8_
FNDA:0,_RNvMNtNtNtCsdMIo0gejTVK_13identity_core6crypto11merkle_tree5proofINtB2_5ProofNtNtCsfaahmxv2G8K_4sha26sha2566Sha256E5indexB8_
FNDA:0,_RNCNvMNtNtNtCsdMIo0gejTVK_13identity_core6crypto11merkle_tree5proofINtB4_5ProofNtNtCsfaahmxv2G8K_4sha26sha2566Sha256E5index0Ba_
FNDA:0,_RNCNvMNtNtNtCsdMIo0gejTVK_13identity_core6crypto11merkle_tree5proofINtB4_5ProofNtNtNtCsgcTqQQq5qGi_6crypto6hashes7blake2b10Blake2b256E5index0Ba_
FNDA:0,_RNvMNtNtNtCsdMIo0gejTVK_13identity_core6crypto11merkle_tree5proofINtB2_5ProofNtNtNtCsgcTqQQq5qGi_6crypto6hashes7blake2b10Blake2b256E9root_withB8_
FNDA:0,_RNvMNtNtNtCsdMIo0gejTVK_13identity_core6crypto11merkle_tree5proofINtB2_5ProofNtNtNtCsgcTqQQq5qGi_6crypto6hashes7blake2b10Blake2b256E5indexB8_
FNDA:0,_RNvMNtNtNtCsjQ7CiUSXMgx_13identity_core6crypto11merkle_tree5proofINtB2_5ProofNtNtCsfaahmxv2G8K_4sha26sha2566Sha256E5indexCs3sQMjYUjz43_12identity_did
FNDA:0,_RNvMNtNtNtCsjQ7CiUSXMgx_13identity_core6crypto11merkle_tree5proofINtB2_5ProofNtNtNtCsgcTqQQq5qGi_6crypto6hashes7blake2b10Blake2b256E9root_withCs3sQMjYUjz43_12identity_did
FNDA:0,_RNvMNtNtNtCsjQ7CiUSXMgx_13identity_core6crypto11merkle_tree5proofINtB2_5ProofNtNtCsfaahmxv2G8K_4sha26sha2566Sha256E9root_withCs3sQMjYUjz43_12identity_did
FNDA:0,_RNvMNtNtNtCsjQ7CiUSXMgx_13identity_core6crypto11merkle_tree5proofINtB2_5ProofNtNtNtCsgcTqQQq5qGi_6crypto6hashes7blake2b10Blake2b256E5indexCs3sQMjYUjz43_12identity_did
FNDA:0,_RNCNvMNtNtNtCsjQ7CiUSXMgx_13identity_core6crypto11merkle_tree5proofINtB4_5ProofNtNtCsfaahmxv2G8K_4sha26sha2566Sha256E5index0Cs3sQMjYUjz43_12identity_did
FNDA:0,_RNCNvMNtNtNtCsjQ7CiUSXMgx_13identity_core6crypto11merkle_tree5proofINtB4_5ProofNtNtNtCsgcTqQQq5qGi_6crypto6hashes7blake2b10Blake2b256E5index0Cs3sQMjYUjz43_12identity_did
FNDA:0,_RNvMNtNtNtCsjQ7CiUSXMgx_13identity_core6crypto11merkle_tree5proofINtB2_5ProofNtNtCsfaahmxv2G8K_4sha26sha2566Sha256E5indexCsapfZL3txtKN_13identity_iota
FNDA:0,_RNvMNtNtNtCsjQ7CiUSXMgx_13identity_core6crypto11merkle_tree5proofINtB2_5ProofNtNtNtCsgcTqQQq5qGi_6crypto6hashes7blake2b10Blake2b256E9root_withCsapfZL3txtKN_13identity_iota
FNDA:0,_RNCNvMNtNtNtCsjQ7CiUSXMgx_13identity_core6crypto11merkle_tree5proofINtB4_5ProofNtNtNtCsgcTqQQq5qGi_6crypto6hashes7blake2b10Blake2b256E5index0CsapfZL3txtKN_13identity_iota
FNDA:0,_RNvMNtNtNtCsjQ7CiUSXMgx_13identity_core6crypto11merkle_tree5proofINtB2_5ProofNtNtCsfaahmxv2G8K_4sha26sha2566Sha256E9root_withCsapfZL3txtKN_13identity_iota
FNDA:0,_RNvMNtNtNtCsjQ7CiUSXMgx_13identity_core6crypto11merkle_tree5proofINtB2_5ProofNtNtNtCsgcTqQQq5qGi_6crypto6hashes7blake2b10Blake2b256E5indexCsapfZL3txtKN_13identity_iota
FNDA:0,_RNCNvMNtNtNtCsjQ7CiUSXMgx_13identity_core6crypto11merkle_tree5proofINtB4_5ProofNtNtCsfaahmxv2G8K_4sha26sha2566Sha256E5index0CsapfZL3txtKN_13identity_iota
FNF:3
FNH:0
DA:32,0
DA:33,0
DA:34,0
DA:35,0
DA:36,0
DA:37,0
DA:59,0
DA:60,0
DA:61,0
BRF:0
BFH:0
LF:11
LH:0
end_of_record
SF:identity-core/src/crypto/merkle_tree/serde.rs
FN:87,_RNvMs_NtNtNtCsdMIo0gejTVK_13identity_core6crypto11merkle_tree5serdeINtNtB6_5proof5ProofNtNtCsfaahmxv2G8K_4sha26sha2566Sha256E11encode_intoBa_
FN:101,_RNvMs_NtNtNtCsdMIo0gejTVK_13identity_core6crypto11merkle_tree5serdeINtNtB6_5proof5ProofNtNtCsfaahmxv2G8K_4sha26sha2566Sha256E6decodeBa_
FN:87,_RNvMs_NtNtNtCsdMIo0gejTVK_13identity_core6crypto11merkle_tree5serdeINtNtB6_5proof5ProofNtNtNtCsgcTqQQq5qGi_6crypto6hashes7blake2b10Blake2b256E11encode_intoBa_
FN:101,_RNvMs_NtNtNtCsdMIo0gejTVK_13identity_core6crypto11merkle_tree5serdeINtNtB6_5proof5ProofNtNtNtCsgcTqQQq5qGi_6crypto6hashes7blake2b10Blake2b256E6decodeBa_
FN:36,_RNvMNtNtNtCsdMIo0gejTVK_13identity_core6crypto11merkle_tree5serdeINtNtB4_4node4NodeNtNtNtCsgcTqQQq5qGi_6crypto6hashes7blake2b10Blake2b256E11encode_intoB8_
FN:53,_RNvMNtNtNtCsdMIo0gejTVK_13identity_core6crypto11merkle_tree5serdeINtNtB4_4node4NodeNtNtCsfaahmxv2G8K_4sha26sha2566Sha256E6decodeB8_
FN:53,_RNvMNtNtNtCsdMIo0gejTVK_13identity_core6crypto11merkle_tree5serdeINtNtB4_4node4NodeNtNtNtCsgcTqQQq5qGi_6crypto6hashes7blake2b10Blake2b256E6decodeB8_
FN:36,_RNvMNtNtNtCsdMIo0gejTVK_13identity_core6crypto11merkle_tree5serdeINtNtB4_4node4NodeNtNtCsfaahmxv2G8K_4sha26sha2566Sha256E11encode_intoB8_
FN:36,_RNvMNtNtNtCsjQ7CiUSXMgx_13identity_core6crypto11merkle_tree5serdeINtNtB4_4node4NodeNtNtNtCsgcTqQQq5qGi_6crypto6hashes7blake2b10Blake2b256E11encode_intoCs3sQMjYUjz43_12identity_did
FN:53,_RNvMNtNtNtCsjQ7CiUSXMgx_13identity_core6crypto11merkle_tree5serdeINtNtB4_4node4NodeNtNtCsfaahmxv2G8K_4sha26sha2566Sha256E6decodeCs3sQMjYUjz43_12identity_did
FN:53,_RNvMNtNtNtCsjQ7CiUSXMgx_13identity_core6crypto11merkle_tree5serdeINtNtB4_4node4NodeNtNtNtCsgcTqQQq5qGi_6crypto6hashes7blake2b10Blake2b256E6decodeCs3sQMjYUjz43_12identity_did
FN:36,_RNvMNtNtNtCsjQ7CiUSXMgx_13identity_core6crypto11merkle_tree5serdeINtNtB4_4node4NodeNtNtCsfaahmxv2G8K_4sha26sha2566Sha256E11encode_intoCs3sQMjYUjz43_12identity_did
FN:87,_RNvMs_NtNtNtCsjQ7CiUSXMgx_13identity_core6crypto11merkle_tree5serdeINtNtB6_5proof5ProofNtNtCsfaahmxv2G8K_4sha26sha2566Sha256E11encode_intoCs3sQMjYUjz43_12identity_did
FN:101,_RNvMs_NtNtNtCsjQ7CiUSXMgx_13identity_core6crypto11merkle_tree5serdeINtNtB6_5proof5ProofNtNtCsfaahmxv2G8K_4sha26sha2566Sha256E6decodeCs3sQMjYUjz43_12identity_did
FN:87,_RNvMs_NtNtNtCsjQ7CiUSXMgx_13identity_core6crypto11merkle_tree5serdeINtNtB6_5proof5ProofNtNtNtCsgcTqQQq5qGi_6crypto6hashes7blake2b10Blake2b256E11encode_intoCs3sQMjYUjz43_12identity_did
FN:101,_RNvMs_NtNtNtCsjQ7CiUSXMgx_13identity_core6crypto11merkle_tree5serdeINtNtB6_5proof5ProofNtNtNtCsgcTqQQq5qGi_6crypto6hashes7blake2b10Blake2b256E6decodeCs3sQMjYUjz43_12identity_did
FN:36,_RNvMNtNtNtCsjQ7CiUSXMgx_13identity_core6crypto11merkle_tree5serdeINtNtB4_4node4NodeNtNtCsfaahmxv2G8K_4sha26sha2566Sha256E11encode_intoCs9VfPsUr1MEv_19identity_credential
FN:36,_RNvMNtNtNtCsjQ7CiUSXMgx_13identity_core6crypto11merkle_tree5serdeINtNtB4_4node4NodeNtNtNtCsgcTqQQq5qGi_6crypto6hashes7blake2b10Blake2b256E11encode_intoCs9VfPsUr1MEv_19identity_credential
FN:87,_RNvMs_NtNtNtCsjQ7CiUSXMgx_13identity_core6crypto11merkle_tree5serdeINtNtB6_5proof5ProofNtNtCsfaahmxv2G8K_4sha26sha2566Sha256E11encode_intoCs9VfPsUr1MEv_19identity_credential
FN:87,_RNvMs_NtNtNtCsjQ7CiUSXMgx_13identity_core6crypto11merkle_tree5serdeINtNtB6_5proof5ProofNtNtNtCsgcTqQQq5qGi_6crypto6hashes7blake2b10Blake2b256E11encode_intoCs9VfPsUr1MEv_19identity_credential
FN:101,_RNvMs_NtNtNtCsjQ7CiUSXMgx_13identity_core6crypto11merkle_tree5serdeINtNtB6_5proof5ProofNtNtNtCsgcTqQQq5qGi_6crypto6hashes7blake2b10Blake2b256E6decodeCsapfZL3txtKN_13identity_iota
FN:87,_RNvMs_NtNtNtCsjQ7CiUSXMgx_13identity_core6crypto11merkle_tree5serdeINtNtB6_5proof5ProofNtNtCsfaahmxv2G8K_4sha26sha2566Sha256E11encode_intoCsapfZL3txtKN_13identity_iota
FN:101,_RNvMs_NtNtNtCsjQ7CiUSXMgx_13identity_core6crypto11merkle_tree5serdeINtNtB6_5proof5ProofNtNtCsfaahmxv2G8K_4sha26sha2566Sha256E6decodeCsapfZL3txtKN_13identity_iota
FN:87,_RNvMs_NtNtNtCsjQ7CiUSXMgx_13identity_core6crypto11merkle_tree5serdeINtNtB6_5proof5ProofNtNtNtCsgcTqQQq5qGi_6crypto6hashes7blake2b10Blake2b256E11encode_intoCsapfZL3txtKN_13identity_iota
FN:36,_RNvMNtNtNtCsjQ7CiUSXMgx_13identity_core6crypto11merkle_tree5serdeINtNtB4_4node4NodeNtNtNtCsgcTqQQq5qGi_6crypto6hashes7blake2b10Blake2b256E11encode_intoCsapfZL3txtKN_13identity_iota
FN:53,_RNvMNtNtNtCsjQ7CiUSXMgx_13identity_core6crypto11merkle_tree5serdeINtNtB4_4node4NodeNtNtCsfaahmxv2G8K_4sha26sha2566Sha256E6decodeCsapfZL3txtKN_13identity_iota
FN:53,_RNvMNtNtNtCsjQ7CiUSXMgx_13identity_core6crypto11merkle_tree5serdeINtNtB4_4node4NodeNtNtNtCsgcTqQQq5qGi_6crypto6hashes7blake2b10Blake2b256E6decodeCsapfZL3txtKN_13identity_iota
FN:36,_RNvMNtNtNtCsjQ7CiUSXMgx_13identity_core6crypto11merkle_tree5serdeINtNtB4_4node4NodeNtNtCsfaahmxv2G8K_4sha26sha2566Sha256E11encode_intoCsapfZL3txtKN_13identity_iota
FNDA:0,_RNvMs_NtNtNtCsdMIo0gejTVK_13identity_core6crypto11merkle_tree5serdeINtNtB6_5proof5ProofNtNtCsfaahmxv2G8K_4sha26sha2566Sha256E11encode_intoBa_
FNDA:0,_RNvMs_NtNtNtCsdMIo0gejTVK_13identity_core6crypto11merkle_tree5serdeINtNtB6_5proof5ProofNtNtCsfaahmxv2G8K_4sha26sha2566Sha256E6decodeBa_
FNDA:0,_RNvMs_NtNtNtCsdMIo0gejTVK_13identity_core6crypto11merkle_tree5serdeINtNtB6_5proof5ProofNtNtNtCsgcTqQQq5qGi_6crypto6hashes7blake2b10Blake2b256E11encode_intoBa_
FNDA:0,_RNvMs_NtNtNtCsdMIo0gejTVK_13identity_core6crypto11merkle_tree5serdeINtNtB6_5proof5ProofNtNtNtCsgcTqQQq5qGi_6crypto6hashes7blake2b10Blake2b256E6decodeBa_
FNDA:0,_RNvMNtNtNtCsdMIo0gejTVK_13identity_core6crypto11merkle_tree5serdeINtNtB4_4node4NodeNtNtNtCsgcTqQQq5qGi_6crypto6hashes7blake2b10Blake2b256E11encode_intoB8_
FNDA:0,_RNvMNtNtNtCsdMIo0gejTVK_13identity_core6crypto11merkle_tree5serdeINtNtB4_4node4NodeNtNtCsfaahmxv2G8K_4sha26sha2566Sha256E6decodeB8_
FNDA:0,_RNvMNtNtNtCsdMIo0gejTVK_13identity_core6crypto11merkle_tree5serdeINtNtB4_4node4NodeNtNtNtCsgcTqQQq5qGi_6crypto6hashes7blake2b10Blake2b256E6decodeB8_
FNDA:0,_RNvMNtNtNtCsdMIo0gejTVK_13identity_core6crypto11merkle_tree5serdeINtNtB4_4node4NodeNtNtCsfaahmxv2G8K_4sha26sha2566Sha256E11encode_intoB8_
FNDA:0,_RNvMNtNtNtCsjQ7CiUSXMgx_13identity_core6crypto11merkle_tree5serdeINtNtB4_4node4NodeNtNtNtCsgcTqQQq5qGi_6crypto6hashes7blake2b10Blake2b256E11encode_intoCs3sQMjYUjz43_12identity_did
FNDA:0,_RNvMNtNtNtCsjQ7CiUSXMgx_13identity_core6crypto11merkle_tree5serdeINtNtB4_4node4NodeNtNtCsfaahmxv2G8K_4sha26sha2566Sha256E6decodeCs3sQMjYUjz43_12identity_did
FNDA:0,_RNvMNtNtNtCsjQ7CiUSXMgx_13identity_core6crypto11merkle_tree5serdeINtNtB4_4node4NodeNtNtNtCsgcTqQQq5qGi_6crypto6hashes7blake2b10Blake2b256E6decodeCs3sQMjYUjz43_12identity_did
FNDA:0,_RNvMNtNtNtCsjQ7CiUSXMgx_13identity_core6crypto11merkle_tree5serdeINtNtB4_4node4NodeNtNtCsfaahmxv2G8K_4sha26sha2566Sha256E11encode_intoCs3sQMjYUjz43_12identity_did
FNDA:0,_RNvMs_NtNtNtCsjQ7CiUSXMgx_13identity_core6crypto11merkle_tree5serdeINtNtB6_5proof5ProofNtNtCsfaahmxv2G8K_4sha26sha2566Sha256E11encode_intoCs3sQMjYUjz43_12identity_did
FNDA:0,_RNvMs_NtNtNtCsjQ7CiUSXMgx_13identity_core6crypto11merkle_tree5serdeINtNtB6_5proof5ProofNtNtCsfaahmxv2G8K_4sha26sha2566Sha256E6decodeCs3sQMjYUjz43_12identity_did
FNDA:0,_RNvMs_NtNtNtCsjQ7CiUSXMgx_13identity_core6crypto11merkle_tree5serdeINtNtB6_5proof5ProofNtNtNtCsgcTqQQq5qGi_6crypto6hashes7blake2b10Blake2b256E11encode_intoCs3sQMjYUjz43_12identity_did
FNDA:0,_RNvMs_NtNtNtCsjQ7CiUSXMgx_13identity_core6crypto11merkle_tree5serdeINtNtB6_5proof5ProofNtNtNtCsgcTqQQq5qGi_6crypto6hashes7blake2b10Blake2b256E6decodeCs3sQMjYUjz43_12identity_did
FNDA:0,_RNvMNtNtNtCsjQ7CiUSXMgx_13identity_core6crypto11merkle_tree5serdeINtNtB4_4node4NodeNtNtCsfaahmxv2G8K_4sha26sha2566Sha256E11encode_intoCs9VfPsUr1MEv_19identity_credential
FNDA:0,_RNvMNtNtNtCsjQ7CiUSXMgx_13identity_core6crypto11merkle_tree5serdeINtNtB4_4node4NodeNtNtNtCsgcTqQQq5qGi_6crypto6hashes7blake2b10Blake2b256E11encode_intoCs9VfPsUr1MEv_19identity_credential
FNDA:0,_RNvMs_NtNtNtCsjQ7CiUSXMgx_13identity_core6crypto11merkle_tree5serdeINtNtB6_5proof5ProofNtNtCsfaahmxv2G8K_4sha26sha2566Sha256E11encode_intoCs9VfPsUr1MEv_19identity_credential
FNDA:0,_RNvMs_NtNtNtCsjQ7CiUSXMgx_13identity_core6crypto11merkle_tree5serdeINtNtB6_5proof5ProofNtNtNtCsgcTqQQq5qGi_6crypto6hashes7blake2b10Blake2b256E11encode_intoCs9VfPsUr1MEv_19identity_credential
FNDA:0,_RNvMs_NtNtNtCsjQ7CiUSXMgx_13identity_core6crypto11merkle_tree5serdeINtNtB6_5proof5ProofNtNtNtCsgcTqQQq5qGi_6crypto6hashes7blake2b10Blake2b256E6decodeCsapfZL3txtKN_13identity_iota
FNDA:0,_RNvMs_NtNtNtCsjQ7CiUSXMgx_13identity_core6crypto11merkle_tree5serdeINtNtB6_5proof5ProofNtNtCsfaahmxv2G8K_4sha26sha2566Sha256E11encode_intoCsapfZL3txtKN_13identity_iota
FNDA:0,_RNvMs_NtNtNtCsjQ7CiUSXMgx_13identity_core6crypto11merkle_tree5serdeINtNtB6_5proof5ProofNtNtCsfaahmxv2G8K_4sha26sha2566Sha256E6decodeCsapfZL3txtKN_13identity_iota
FNDA:0,_RNvMs_NtNtNtCsjQ7CiUSXMgx_13identity_core6crypto11merkle_tree5serdeINtNtB6_5proof5ProofNtNtNtCsgcTqQQq5qGi_6crypto6hashes7blake2b10Blake2b256E11encode_intoCsapfZL3txtKN_13identity_iota
FNDA:0,_RNvMNtNtNtCsjQ7CiUSXMgx_13identity_core6crypto11merkle_tree5serdeINtNtB4_4node4NodeNtNtNtCsgcTqQQq5qGi_6crypto6hashes7blake2b10Blake2b256E11encode_intoCsapfZL3txtKN_13identity_iota
FNDA:0,_RNvMNtNtNtCsjQ7CiUSXMgx_13identity_core6crypto11merkle_tree5serdeINtNtB4_4node4NodeNtNtCsfaahmxv2G8K_4sha26sha2566Sha256E6decodeCsapfZL3txtKN_13identity_iota
FNDA:0,_RNvMNtNtNtCsjQ7CiUSXMgx_13identity_core6crypto11merkle_tree5serdeINtNtB4_4node4NodeNtNtNtCsgcTqQQq5qGi_6crypto6hashes7blake2b10Blake2b256E6decodeCsapfZL3txtKN_13identity_iota
FNDA:0,_RNvMNtNtNtCsjQ7CiUSXMgx_13identity_core6crypto11merkle_tree5serdeINtNtB4_4node4NodeNtNtCsfaahmxv2G8K_4sha26sha2566Sha256E11encode_intoCsapfZL3txtKN_13identity_iota
FNF:4
FNH:0
DA:36,0
DA:37,0
DA:38,0
DA:39,0
DA:40,0
DA:41,0
DA:42,0
DA:43,0
DA:44,0
DA:45,0
DA:47,0
DA:53,0
DA:54,0
DA:55,0
DA:56,0
DA:58,0
DA:87,0
DA:88,0
DA:89,0
DA:90,0
DA:91,0
DA:93,0
DA:94,0
DA:95,0
DA:96,0
DA:101,0
DA:102,0
DA:103,0
DA:105,0
DA:106,0
DA:108,0
DA:109,0
DA:110,0
DA:113,0
DA:114,0
BRF:0
BFH:0
LF:35
LH:0
end_of_record
SF:identity-core/src/crypto/proof/jcs_ed25519.rs
FN:57,_RINvXs0_NtNtNtCsdMIo0gejTVK_13identity_core6crypto5proof11jcs_ed25519INtB6_10JcsEd25519INtNtNtBa_9signature7ed255197Ed25519NtNtNtBa_3key3key9PublicKeyEEINtNtNtB1s_6traits4core8VerifierB1X_E6verifyNtNtCs1CNeFI220rp_10serde_json5value5ValueEBc_
FN:57,_RINvXs0_NtNtNtCsdMIo0gejTVK_13identity_core6crypto5proof11jcs_ed25519INtB6_10JcsEd25519INtNtNtBa_9signature7ed255197Ed25519NtNtNtBa_3key3key9PublicKeyEEINtNtNtB1s_6traits4core8VerifierB1X_E6verifyRShEBc_
FN:57,_RINvXs0_NtNtNtCsdMIo0gejTVK_13identity_core6crypto5proof11jcs_ed25519INtB6_10JcsEd25519INtNtNtBa_9signature7ed255197Ed25519NtNtNtBa_3key3key9PublicKeyEEINtNtNtB1s_6traits4core8VerifierB1X_E6verifyINtNtNtNtCslaFPCg94Pel_5alloc11collections5btree3map8BTreeMapNtNtB3h_6string6StringNtNtCs1CNeFI220rp_10serde_json5value5ValueEEBc_
FN:41,_RINvXs_NtNtNtCsdMIo0gejTVK_13identity_core6crypto5proof11jcs_ed25519INtB5_10JcsEd25519INtNtNtB9_9signature7ed255197Ed25519NtNtNtB9_3key3key9SecretKeyEEINtNtNtB1r_6traits4core6SignerB1W_E4signINtNtNtNtCslaFPCg94Pel_5alloc11collections5btree3map8BTreeMapNtNtB3c_6string6StringNtNtCs1CNeFI220rp_10serde_json5value5ValueEEBb_
FN:41,_RINvXs_NtNtNtCsdMIo0gejTVK_13identity_core6crypto5proof11jcs_ed25519INtB5_10JcsEd25519INtNtNtB9_9signature7ed255197Ed25519NtNtNtB9_3key3key9SecretKeyEEINtNtNtB1r_6traits4core6SignerB1W_E4signNtNtCs1CNeFI220rp_10serde_json5value5ValueEBb_
FN:41,_RINvXs_NtNtNtCsdMIo0gejTVK_13identity_core6crypto5proof11jcs_ed25519INtB5_10JcsEd25519INtNtNtB9_9signature7ed255197Ed25519NtNtNtB9_3key3key9SecretKeyEEINtNtNtB1r_6traits4core6SignerB1W_E4signRShEBb_
FN:126,_RNvNtNtNtNtCsdMIo0gejTVK_13identity_core6crypto5proof11jcs_ed255195testss_15test_sign_hello
FN:143,_RNvNtNtNtNtCsdMIo0gejTVK_13identity_core6crypto5proof11jcs_ed255195testss_16test_sign_verify
FN:101,_RNvNtNtNtNtCsdMIo0gejTVK_13identity_core6crypto5proof11jcs_ed255195testss_8test_tvs
FN:57,_RINvXs0_NtNtNtCsjQ7CiUSXMgx_13identity_core6crypto5proof11jcs_ed25519NtB6_10JcsEd25519INtNtNtNtBa_9signature6traits4core8VerifierShE6verifyRINtNtNtCs3sQMjYUjz43_12identity_did8document8document8DocumentNtNtNtB2l_10verifiable10properties10PropertiesEEB2l_
FN:41,_RINvXs_NtNtNtCsjQ7CiUSXMgx_13identity_core6crypto5proof11jcs_ed25519NtB5_10JcsEd25519INtNtNtNtB9_9signature6traits4core6SignerShE4signQNtNtNtCs3sQMjYUjz43_12identity_did10verifiable5tests4ThatEB2f_
FN:41,_RINvXs_NtNtNtCsjQ7CiUSXMgx_13identity_core6crypto5proof11jcs_ed25519NtB5_10JcsEd25519INtNtNtNtB9_9signature6traits4core6SignerShE4signQINtNtNtCs3sQMjYUjz43_12identity_did8document8document8DocumentNtNtNtB2g_10verifiable10properties10PropertiesEEB2g_
FN:57,_RINvXs0_NtNtNtCsjQ7CiUSXMgx_13identity_core6crypto5proof11jcs_ed25519NtB6_10JcsEd25519INtNtNtNtBa_9signature6traits4core8VerifierShE6verifyRNtNtNtCs3sQMjYUjz43_12identity_did10verifiable5tests4ThatEB2k_
FN:41,_RINvXs_NtNtNtCsjQ7CiUSXMgx_13identity_core6crypto5proof11jcs_ed25519NtB5_10JcsEd25519INtNtNtNtB9_9signature6traits4core6SignerShE4signQNtNtNtCs9VfPsUr1MEv_19identity_credential10credential10credential10CredentialEB2f_
FN:57,_RINvXs0_NtNtNtCsjQ7CiUSXMgx_13identity_core6crypto5proof11jcs_ed25519NtB6_10JcsEd25519INtNtNtNtBa_9signature6traits4core8VerifierShE6verifyRNtNtNtCs1iZZWPuKeP6_19identity_credential10credential10credential10CredentialECskt00YjyhLiG_13identity_wasm
FN:57,_RINvXs0_NtNtNtCsjQ7CiUSXMgx_13identity_core6crypto5proof11jcs_ed25519NtB6_10JcsEd25519INtNtNtNtBa_9signature6traits4core8VerifierShE6verifyRNtNtNtCs1iZZWPuKeP6_19identity_credential12presentation12presentation12PresentationECskt00YjyhLiG_13identity_wasm
FN:57,_RINvXs0_NtNtNtCsjQ7CiUSXMgx_13identity_core6crypto5proof11jcs_ed25519NtB6_10JcsEd25519INtNtNtNtBa_9signature6traits4core8VerifierShE6verifyRNtNtNtCsdwuhiSxlwM7_12identity_did10verifiable10properties10PropertiesECskt00YjyhLiG_13identity_wasm
FN:41,_RINvXs_NtNtNtCsjQ7CiUSXMgx_13identity_core6crypto5proof11jcs_ed25519NtB5_10JcsEd25519INtNtNtNtB9_9signature6traits4core6SignerShE4signQNtNtNtCsdwuhiSxlwM7_12identity_did10verifiable10properties10PropertiesECskt00YjyhLiG_13identity_wasm
FN:41,_RINvXs_NtNtNtCsjQ7CiUSXMgx_13identity_core6crypto5proof11jcs_ed25519NtB5_10JcsEd25519INtNtNtNtB9_9signature6traits4core6SignerShE4signQNtNtNtNtCsapfZL3txtKN_13identity_iota3did3doc4diff12DocumentDiffEB2h_
FN:57,_RINvXs0_NtNtNtCsjQ7CiUSXMgx_13identity_core6crypto5proof11jcs_ed25519NtB6_10JcsEd25519INtNtNtNtBa_9signature6traits4core8VerifierShE6verifyRNtNtNtNtCsapfZL3txtKN_13identity_iota3did3doc4diff12DocumentDiffEB2m_
FN:41,_RINvXs_NtNtNtCsjQ7CiUSXMgx_13identity_core6crypto5proof11jcs_ed25519NtB5_10JcsEd25519INtNtNtNtB9_9signature6traits4core6SignerShE4signQINtNtNtCsdwuhiSxlwM7_12identity_did8document8document8DocumentINtNtNtB2g_10verifiable10properties10PropertiesNtNtNtNtCsapfZL3txtKN_13identity_iota3did3doc10properties10PropertiesEINtNtNtNtCslaFPCg94Pel_5alloc11collections5btree3map8BTreeMapNtNtB5b_6string6StringNtNtCs1CNeFI220rp_10serde_json5value5ValueEuEEB42_
FN:57,_RINvXs0_NtNtNtCsjQ7CiUSXMgx_13identity_core6crypto5proof11jcs_ed25519NtB6_10JcsEd25519INtNtNtNtBa_9signature6traits4core8VerifierShE6verifyRINtNtNtCsdwuhiSxlwM7_12identity_did8document8document8DocumentINtNtNtB2l_10verifiable10properties10PropertiesNtNtNtNtCsapfZL3txtKN_13identity_iota3did3doc10properties10PropertiesEINtNtNtNtCslaFPCg94Pel_5alloc11collections5btree3map8BTreeMapNtNtB5g_6string6StringNtNtCs1CNeFI220rp_10serde_json5value5ValueEuEEB47_
FN:57,_RINvXs0_NtNtNtCsjQ7CiUSXMgx_13identity_core6crypto5proof11jcs_ed25519NtB6_10JcsEd25519INtNtNtNtBa_9signature6traits4core8VerifierShE6verifyRNtNtNtNtCsapfZL3txtKN_13identity_iota3did3doc8document8DocumentEB2m_
FNDA:0,_RINvXs0_NtNtNtCsdMIo0gejTVK_13identity_core6crypto5proof11jcs_ed25519INtB6_10JcsEd25519INtNtNtBa_9signature7ed255197Ed25519NtNtNtBa_3key3key9PublicKeyEEINtNtNtB1s_6traits4core8VerifierB1X_E6verifyNtNtCs1CNeFI220rp_10serde_json5value5ValueEBc_
FNDA:0,_RINvXs0_NtNtNtCsdMIo0gejTVK_13identity_core6crypto5proof11jcs_ed25519INtB6_10JcsEd25519INtNtNtBa_9signature7ed255197Ed25519NtNtNtBa_3key3key9PublicKeyEEINtNtNtB1s_6traits4core8VerifierB1X_E6verifyRShEBc_
FNDA:0,_RINvXs0_NtNtNtCsdMIo0gejTVK_13identity_core6crypto5proof11jcs_ed25519INtB6_10JcsEd25519INtNtNtBa_9signature7ed255197Ed25519NtNtNtBa_3key3key9PublicKeyEEINtNtNtB1s_6traits4core8VerifierB1X_E6verifyINtNtNtNtCslaFPCg94Pel_5alloc11collections5btree3map8BTreeMapNtNtB3h_6string6StringNtNtCs1CNeFI220rp_10serde_json5value5ValueEEBc_
FNDA:0,_RINvXs_NtNtNtCsdMIo0gejTVK_13identity_core6crypto5proof11jcs_ed25519INtB5_10JcsEd25519INtNtNtB9_9signature7ed255197Ed25519NtNtNtB9_3key3key9SecretKeyEEINtNtNtB1r_6traits4core6SignerB1W_E4signINtNtNtNtCslaFPCg94Pel_5alloc11collections5btree3map8BTreeMapNtNtB3c_6string6StringNtNtCs1CNeFI220rp_10serde_json5value5ValueEEBb_
FNDA:0,_RINvXs_NtNtNtCsdMIo0gejTVK_13identity_core6crypto5proof11jcs_ed25519INtB5_10JcsEd25519INtNtNtB9_9signature7ed255197Ed25519NtNtNtB9_3key3key9SecretKeyEEINtNtNtB1r_6traits4core6SignerB1W_E4signNtNtCs1CNeFI220rp_10serde_json5value5ValueEBb_
FNDA:0,_RINvXs_NtNtNtCsdMIo0gejTVK_13identity_core6crypto5proof11jcs_ed25519INtB5_10JcsEd25519INtNtNtB9_9signature7ed255197Ed25519NtNtNtB9_3key3key9SecretKeyEEINtNtNtB1r_6traits4core6SignerB1W_E4signRShEBb_
FNDA:0,_RNvNtNtNtNtCsdMIo0gejTVK_13identity_core6crypto5proof11jcs_ed255195testss_15test_sign_hello
FNDA:0,_RNvNtNtNtNtCsdMIo0gejTVK_13identity_core6crypto5proof11jcs_ed255195testss_16test_sign_verify
FNDA:0,_RNvNtNtNtNtCsdMIo0gejTVK_13identity_core6crypto5proof11jcs_ed255195testss_8test_tvs
FNDA:0,_RINvXs0_NtNtNtCsjQ7CiUSXMgx_13identity_core6crypto5proof11jcs_ed25519NtB6_10JcsEd25519INtNtNtNtBa_9signature6traits4core8VerifierShE6verifyRINtNtNtCs3sQMjYUjz43_12identity_did8document8document8DocumentNtNtNtB2l_10verifiable10properties10PropertiesEEB2l_
FNDA:0,_RINvXs_NtNtNtCsjQ7CiUSXMgx_13identity_core6crypto5proof11jcs_ed25519NtB5_10JcsEd25519INtNtNtNtB9_9signature6traits4core6SignerShE4signQNtNtNtCs3sQMjYUjz43_12identity_did10verifiable5tests4ThatEB2f_
FNDA:0,_RINvXs_NtNtNtCsjQ7CiUSXMgx_13identity_core6crypto5proof11jcs_ed25519NtB5_10JcsEd25519INtNtNtNtB9_9signature6traits4core6SignerShE4signQINtNtNtCs3sQMjYUjz43_12identity_did8document8document8DocumentNtNtNtB2g_10verifiable10properties10PropertiesEEB2g_
FNDA:0,_RINvXs0_NtNtNtCsjQ7CiUSXMgx_13identity_core6crypto5proof11jcs_ed25519NtB6_10JcsEd25519INtNtNtNtBa_9signature6traits4core8VerifierShE6verifyRNtNtNtCs3sQMjYUjz43_12identity_did10verifiable5tests4ThatEB2k_
FNDA:0,_RINvXs_NtNtNtCsjQ7CiUSXMgx_13identity_core6crypto5proof11jcs_ed25519NtB5_10JcsEd25519INtNtNtNtB9_9signature6traits4core6SignerShE4signQNtNtNtCs9VfPsUr1MEv_19identity_credential10credential10credential10CredentialEB2f_
FNDA:0,_RINvXs0_NtNtNtCsjQ7CiUSXMgx_13identity_core6crypto5proof11jcs_ed25519NtB6_10JcsEd25519INtNtNtNtBa_9signature6traits4core8VerifierShE6verifyRNtNtNtCs1iZZWPuKeP6_19identity_credential10credential10credential10CredentialECskt00YjyhLiG_13identity_wasm
FNDA:0,_RINvXs0_NtNtNtCsjQ7CiUSXMgx_13identity_core6crypto5proof11jcs_ed25519NtB6_10JcsEd25519INtNtNtNtBa_9signature6traits4core8VerifierShE6verifyRNtNtNtCs1iZZWPuKeP6_19identity_credential12presentation12presentation12PresentationECskt00YjyhLiG_13identity_wasm
FNDA:0,_RINvXs0_NtNtNtCsjQ7CiUSXMgx_13identity_core6crypto5proof11jcs_ed25519NtB6_10JcsEd25519INtNtNtNtBa_9signature6traits4core8VerifierShE6verifyRNtNtNtCsdwuhiSxlwM7_12identity_did10verifiable10properties10PropertiesECskt00YjyhLiG_13identity_wasm
FNDA:0,_RINvXs_NtNtNtCsjQ7CiUSXMgx_13identity_core6crypto5proof11jcs_ed25519NtB5_10JcsEd25519INtNtNtNtB9_9signature6traits4core6SignerShE4signQNtNtNtCsdwuhiSxlwM7_12identity_did10verifiable10properties10PropertiesECskt00YjyhLiG_13identity_wasm
FNDA:0,_RINvXs_NtNtNtCsjQ7CiUSXMgx_13identity_core6crypto5proof11jcs_ed25519NtB5_10JcsEd25519INtNtNtNtB9_9signature6traits4core6SignerShE4signQNtNtNtNtCsapfZL3txtKN_13identity_iota3did3doc4diff12DocumentDiffEB2h_
FNDA:0,_RINvXs0_NtNtNtCsjQ7CiUSXMgx_13identity_core6crypto5proof11jcs_ed25519NtB6_10JcsEd25519INtNtNtNtBa_9signature6traits4core8VerifierShE6verifyRNtNtNtNtCsapfZL3txtKN_13identity_iota3did3doc4diff12DocumentDiffEB2m_
FNDA:0,_RINvXs_NtNtNtCsjQ7CiUSXMgx_13identity_core6crypto5proof11jcs_ed25519NtB5_10JcsEd25519INtNtNtNtB9_9signature6traits4core6SignerShE4signQINtNtNtCsdwuhiSxlwM7_12identity_did8document8document8DocumentINtNtNtB2g_10verifiable10properties10PropertiesNtNtNtNtCsapfZL3txtKN_13identity_iota3did3doc10properties10PropertiesEINtNtNtNtCslaFPCg94Pel_5alloc11collections5btree3map8BTreeMapNtNtB5b_6string6StringNtNtCs1CNeFI220rp_10serde_json5value5ValueEuEEB42_
FNDA:0,_RINvXs0_NtNtNtCsjQ7CiUSXMgx_13identity_core6crypto5proof11jcs_ed25519NtB6_10JcsEd25519INtNtNtNtBa_9signature6traits4core8VerifierShE6verifyRINtNtNtCsdwuhiSxlwM7_12identity_did8document8document8DocumentINtNtNtB2l_10verifiable10properties10PropertiesNtNtNtNtCsapfZL3txtKN_13identity_iota3did3doc10properties10PropertiesEINtNtNtNtCslaFPCg94Pel_5alloc11collections5btree3map8BTreeMapNtNtB5g_6string6StringNtNtCs1CNeFI220rp_10serde_json5value5ValueEuEEB47_
FNDA:0,_RINvXs0_NtNtNtCsjQ7CiUSXMgx_13identity_core6crypto5proof11jcs_ed25519NtB6_10JcsEd25519INtNtNtNtBa_9signature6traits4core8VerifierShE6verifyRNtNtNtNtCsapfZL3txtKN_13identity_iota3did3doc8document8DocumentEB2m_
FNF:5
FNH:0
DA:41,0
DA:42,0
DA:43,0
DA:44,0
DA:45,0
DA:46,0
DA:47,0
DA:48,0
DA:49,0
DA:50,0
DA:57,0
DA:58,0
DA:59,0
DA:60,0
DA:61,0
DA:62,0
DA:63,0
DA:65,0
DA:67,0
DA:68,0
DA:101,0
DA:102,0
DA:103,0
DA:104,0
DA:105,0
DA:106,0
DA:107,0
DA:108,0
DA:109,0
DA:110,0
DA:112,0
DA:114,0
DA:117,0
DA:120,0
DA:121,0
DA:123,0
DA:126,0
DA:133,0
DA:134,0
DA:135,0
DA:136,0
DA:138,0
DA:139,0
DA:140,0
DA:143,0
DA:144,0
DA:145,0
DA:146,0
DA:147,0
DA:148,0
DA:149,0
DA:150,0
DA:153,0
DA:156,0
DA:159,0
DA:160,0
BRF:0
BFH:0
LF:56
LH:0
end_of_record
SF:identity-core/src/crypto/signature/ed25519.rs
FN:27,_RNvXNtNtNtCsdMIo0gejTVK_13identity_core6crypto9signature7ed25519INtB2_7Ed25519NtNtNtB6_3key3key9SecretKeyENtNtNtB4_6traits4core4Sign4signB8_
FN:38,_RNvXs_NtNtNtCsdMIo0gejTVK_13identity_core6crypto9signature7ed25519INtB4_7Ed25519NtNtNtB8_3key3key9PublicKeyENtNtNtB6_6traits4core6Verify6verifyBa_
FN:27,_RNvXNtNtNtCsdMIo0gejTVK_13identity_core6crypto9signature7ed25519NtB2_7Ed25519NtNtNtB4_6traits4core4Sign4signB8_
FN:27,_RNvXNtNtNtCsdMIo0gejTVK_13identity_core6crypto9signature7ed25519INtB2_7Ed25519INtNtCslaFPCg94Pel_5alloc3vec3VechEENtNtNtB4_6traits4core4Sign4signB8_
FN:38,_RNvXs_NtNtNtCsdMIo0gejTVK_13identity_core6crypto9signature7ed25519INtB4_7Ed25519INtNtCslaFPCg94Pel_5alloc3vec3VechEENtNtNtB6_6traits4core6Verify6verifyBa_
FN:38,_RNvXs_NtNtNtCsdMIo0gejTVK_13identity_core6crypto9signature7ed25519NtB4_7Ed25519NtNtNtB6_6traits4core6Verify6verifyBa_
FN:94,_RNvNtNtNtNtCsdMIo0gejTVK_13identity_core6crypto9signature7ed255195testss_32test_ed25519_can_sign_and_verify
FN:17,_RNvNtNtNtCsdMIo0gejTVK_13identity_core6crypto9signature7ed2551912parse_secret
FN:68,_RNvNtNtNtCsdMIo0gejTVK_13identity_core6crypto9signature7ed2551915parse_signature
FN:50,_RNvNtNtNtCsdMIo0gejTVK_13identity_core6crypto9signature7ed2551912parse_public
FN:38,_RNvXs_NtNtNtCsjQ7CiUSXMgx_13identity_core6crypto9signature7ed25519NtB4_7Ed25519NtNtNtB6_6traits4core6Verify6verifyCs3sQMjYUjz43_12identity_did
FN:27,_RNvXNtNtNtCsjQ7CiUSXMgx_13identity_core6crypto9signature7ed25519NtB2_7Ed25519NtNtNtB4_6traits4core4Sign4signCs3sQMjYUjz43_12identity_did
FN:17,_RNvNtNtNtCsjQ7CiUSXMgx_13identity_core6crypto9signature7ed2551915parse_signature
FN:50,_RNvNtNtNtCsjQ7CiUSXMgx_13identity_core6crypto9signature7ed2551912parse_public
FN:59,_RNvNtNtNtCsjQ7CiUSXMgx_13identity_core6crypto9signature7ed2551912parse_secret
FN:27,_RNvXNtNtNtCsjQ7CiUSXMgx_13identity_core6crypto9signature7ed25519NtB2_7Ed25519NtNtNtB4_6traits4core4Sign4signCs9VfPsUr1MEv_19identity_credential
FN:38,_RNvXs_NtNtNtCsjQ7CiUSXMgx_13identity_core6crypto9signature7ed25519NtB4_7Ed25519NtNtNtB6_6traits4core6Verify6verifyCsapfZL3txtKN_13identity_iota
FN:27,_RNvXNtNtNtCsjQ7CiUSXMgx_13identity_core6crypto9signature7ed25519NtB2_7Ed25519NtNtNtB4_6traits4core4Sign4signCsapfZL3txtKN_13identity_iota
FNDA:0,_RNvXNtNtNtCsdMIo0gejTVK_13identity_core6crypto9signature7ed25519INtB2_7Ed25519NtNtNtB6_3key3key9SecretKeyENtNtNtB4_6traits4core4Sign4signB8_
FNDA:0,_RNvXs_NtNtNtCsdMIo0gejTVK_13identity_core6crypto9signature7ed25519INtB4_7Ed25519NtNtNtB8_3key3key9PublicKeyENtNtNtB6_6traits4core6Verify6verifyBa_
FNDA:0,_RNvXNtNtNtCsdMIo0gejTVK_13identity_core6crypto9signature7ed25519NtB2_7Ed25519NtNtNtB4_6traits4core4Sign4signB8_
FNDA:0,_RNvXNtNtNtCsdMIo0gejTVK_13identity_core6crypto9signature7ed25519INtB2_7Ed25519INtNtCslaFPCg94Pel_5alloc3vec3VechEENtNtNtB4_6traits4core4Sign4signB8_
FNDA:0,_RNvXs_NtNtNtCsdMIo0gejTVK_13identity_core6crypto9signature7ed25519INtB4_7Ed25519INtNtCslaFPCg94Pel_5alloc3vec3VechEENtNtNtB6_6traits4core6Verify6verifyBa_
FNDA:0,_RNvXs_NtNtNtCsdMIo0gejTVK_13identity_core6crypto9signature7ed25519NtB4_7Ed25519NtNtNtB6_6traits4core6Verify6verifyBa_
FNDA:0,_RNvNtNtNtNtCsdMIo0gejTVK_13identity_core6crypto9signature7ed255195testss_32test_ed25519_can_sign_and_verify
FNDA:0,_RNvNtNtNtCsdMIo0gejTVK_13identity_core6crypto9signature7ed2551912parse_secret
FNDA:0,_RNvNtNtNtCsdMIo0gejTVK_13identity_core6crypto9signature7ed2551915parse_signature
FNDA:0,_RNvNtNtNtCsdMIo0gejTVK_13identity_core6crypto9signature7ed2551912parse_public
FNDA:0,_RNvXs_NtNtNtCsjQ7CiUSXMgx_13identity_core6crypto9signature7ed25519NtB4_7Ed25519NtNtNtB6_6traits4core6Verify6verifyCs3sQMjYUjz43_12identity_did
FNDA:0,_RNvXNtNtNtCsjQ7CiUSXMgx_13identity_core6crypto9signature7ed25519NtB2_7Ed25519NtNtNtB4_6traits4core4Sign4signCs3sQMjYUjz43_12identity_did
FNDA:0,_RNvNtNtNtCsjQ7CiUSXMgx_13identity_core6crypto9signature7ed2551915parse_signature
FNDA:0,_RNvNtNtNtCsjQ7CiUSXMgx_13identity_core6crypto9signature7ed2551912parse_public
FNDA:0,_RNvNtNtNtCsjQ7CiUSXMgx_13identity_core6crypto9signature7ed2551912parse_secret
FNDA:0,_RNvXNtNtNtCsjQ7CiUSXMgx_13identity_core6crypto9signature7ed25519NtB2_7Ed25519NtNtNtB4_6traits4core4Sign4signCs9VfPsUr1MEv_19identity_credential
FNDA:0,_RNvXs_NtNtNtCsjQ7CiUSXMgx_13identity_core6crypto9signature7ed25519NtB4_7Ed25519NtNtNtB6_6traits4core6Verify6verifyCsapfZL3txtKN_13identity_iota
FNDA:0,_RNvXNtNtNtCsjQ7CiUSXMgx_13identity_core6crypto9signature7ed25519NtB2_7Ed25519NtNtNtB4_6traits4core4Sign4signCsapfZL3txtKN_13identity_iota
FNF:7
FNH:0
DA:17,0
DA:27,0
DA:28,0
DA:29,0
DA:38,0
DA:39,0
DA:40,0
DA:42,0
DA:43,0
DA:45,0
DA:47,0
DA:50,0
DA:51,0
DA:52,0
DA:53,0
DA:54,0
DA:56,0
DA:57,0
DA:59,0
DA:60,0
DA:61,0
DA:62,0
DA:63,0
DA:65,0
DA:66,0
DA:68,0
DA:69,0
DA:70,0
DA:71,0
DA:72,0
DA:74,0
DA:75,0
DA:94,0
DA:95,0
DA:96,0
DA:97,0
DA:98,0
DA:99,0
DA:101,0
DA:103,0
DA:104,0
DA:105,0
BRF:0
BFH:0
LF:59
LH:0
end_of_record
SF:identity-core/src/crypto/signature/signature.rs
FN:96,_RINvXs0_NtNtNtCsjQ7CiUSXMgx_13identity_core6crypto9signature9signatureNtB6_9SignatureNtNtCsbmAr7Tf4vl1_5serde3ser9Serialize9serializeQINtNtCs1CNeFI220rp_10serde_json3ser10SerializerQINtNtCslaFPCg94Pel_5alloc3vec3VechENtNtCsfnbQJTiWCMv_9serde_jcs3ser12JcsFormatterEECs3sQMjYUjz43_12identity_did
FN:17,_RNvXs_NtNtNtCsjQ7CiUSXMgx_13identity_core6crypto9signature9signatureNtB4_9SignatureNtNtCs4RZURTQcbNt_4core3fmt5Debug3fmt
FN:96,_RINvXs0_NtNtNtCsjQ7CiUSXMgx_13identity_core6crypto9signature9signatureNtB6_9SignatureNtNtCsbmAr7Tf4vl1_5serde3ser9Serialize9serializeQINtNtCs1CNeFI220rp_10serde_json3ser10SerializerQINtNtCslaFPCg94Pel_5alloc3vec3VechENtNtCsfnbQJTiWCMv_9serde_jcs3ser12JcsFormatterEECs9VfPsUr1MEv_19identity_credential
FN:96,_RINvXs0_NtNtNtCsjQ7CiUSXMgx_13identity_core6crypto9signature9signatureNtB6_9SignatureNtNtCsbmAr7Tf4vl1_5serde3ser9Serialize9serializeQINtNtCs1CNeFI220rp_10serde_json3ser10SerializerQINtNtCslaFPCg94Pel_5alloc3vec3VechENtB2b_15PrettyFormatterEECsapfZL3txtKN_13identity_iota
FN:96,_RINvXs0_NtNtNtCsjQ7CiUSXMgx_13identity_core6crypto9signature9signatureNtB6_9SignatureNtNtCsbmAr7Tf4vl1_5serde3ser9Serialize9serializeNtNtNtCs1CNeFI220rp_10serde_json5value3ser10SerializerECsapfZL3txtKN_13identity_iota
FN:96,_RINvXs0_NtNtNtCsjQ7CiUSXMgx_13identity_core6crypto9signature9signatureNtB6_9SignatureNtNtCsbmAr7Tf4vl1_5serde3ser9Serialize9serializeQINtNtCs1CNeFI220rp_10serde_json3ser10SerializerQINtNtCslaFPCg94Pel_5alloc3vec3VechENtNtCsfnbQJTiWCMv_9serde_jcs3ser12JcsFormatterEECsapfZL3txtKN_13identity_iota
FN:96,_RINvXs0_NtNtNtCsjQ7CiUSXMgx_13identity_core6crypto9signature9signatureNtB6_9SignatureNtNtCsbmAr7Tf4vl1_5serde3ser9Serialize9serializeQINtNtCs1CNeFI220rp_10serde_json3ser10SerializerQINtNtCslaFPCg94Pel_5alloc3vec3VechEEECsapfZL3txtKN_13identity_iota
FNDA:0,_RINvXs0_NtNtNtCsjQ7CiUSXMgx_13identity_core6crypto9signature9signatureNtB6_9SignatureNtNtCsbmAr7Tf4vl1_5serde3ser9Serialize9serializeQINtNtCs1CNeFI220rp_10serde_json3ser10SerializerQINtNtCslaFPCg94Pel_5alloc3vec3VechENtNtCsfnbQJTiWCMv_9serde_jcs3ser12JcsFormatterEECs3sQMjYUjz43_12identity_did
FNDA:0,_RNvXs_NtNtNtCsjQ7CiUSXMgx_13identity_core6crypto9signature9signatureNtB4_9SignatureNtNtCs4RZURTQcbNt_4core3fmt5Debug3fmt
FNDA:0,_RINvXs0_NtNtNtCsjQ7CiUSXMgx_13identity_core6crypto9signature9signatureNtB6_9SignatureNtNtCsbmAr7Tf4vl1_5serde3ser9Serialize9serializeQINtNtCs1CNeFI220rp_10serde_json3ser10SerializerQINtNtCslaFPCg94Pel_5alloc3vec3VechENtNtCsfnbQJTiWCMv_9serde_jcs3ser12JcsFormatterEECs9VfPsUr1MEv_19identity_credential
FNDA:0,_RINvXs0_NtNtNtCsjQ7CiUSXMgx_13identity_core6crypto9signature9signatureNtB6_9SignatureNtNtCsbmAr7Tf4vl1_5serde3ser9Serialize9serializeQINtNtCs1CNeFI220rp_10serde_json3ser10SerializerQINtNtCslaFPCg94Pel_5alloc3vec3VechENtB2b_15PrettyFormatterEECsapfZL3txtKN_13identity_iota
FNDA:0,_RINvXs0_NtNtNtCsjQ7CiUSXMgx_13identity_core6crypto9signature9signatureNtB6_9SignatureNtNtCsbmAr7Tf4vl1_5serde3ser9Serialize9serializeNtNtNtCs1CNeFI220rp_10serde_json5value3ser10SerializerECsapfZL3txtKN_13identity_iota
FNDA:0,_RINvXs0_NtNtNtCsjQ7CiUSXMgx_13identity_core6crypto9signature9signatureNtB6_9SignatureNtNtCsbmAr7Tf4vl1_5serde3ser9Serialize9serializeQINtNtCs1CNeFI220rp_10serde_json3ser10SerializerQINtNtCslaFPCg94Pel_5alloc3vec3VechENtNtCsfnbQJTiWCMv_9serde_jcs3ser12JcsFormatterEECsapfZL3txtKN_13identity_iota
FNDA:0,_RINvXs0_NtNtNtCsjQ7CiUSXMgx_13identity_core6crypto9signature9signatureNtB6_9SignatureNtNtCsbmAr7Tf4vl1_5serde3ser9Serialize9serializeQINtNtCs1CNeFI220rp_10serde_json3ser10SerializerQINtNtCslaFPCg94Pel_5alloc3vec3VechEEECsapfZL3txtKN_13identity_iota
FNF:2
FNH:0
DA:17,0
DA:31,0
DA:32,0
DA:33,0
DA:34,0
DA:35,0
DA:36,0
DA:37,0
DA:38,0
DA:86,0
DA:87,0
DA:88,0
DA:89,0
DA:90,0
DA:91,0
DA:92,0
DA:96,0
DA:97,0
DA:98,0
DA:99,0
DA:100,0
DA:102,0
DA:103,0
DA:105,0
DA:108,0
DA:109,0
DA:111,0
DA:112,0
DA:113,0
DA:115,0
DA:116,0
BRF:0
BFH:0
LF:46
LH:0
end_of_record
SF:identity-core/src/crypto/signature/signature_value.rs
FN:43,_RNvMNtNtNtCsdMIo0gejTVK_13identity_core6crypto9signature15signature_valueNtB2_14SignatureValue6as_str
FN:83,_RNvMNtNtNtCsdMIo0gejTVK_13identity_core6crypto9signature15signature_valueNtB2_14SignatureValue12as_signature
FN:33,_RNvMNtNtNtCsjQ7CiUSXMgx_13identity_core6crypto9signature15signature_valueNtB2_14SignatureValue8is_proof
FN:5,_RNvXNvXNvNtNtNtCsjQ7CiUSXMgx_13identity_core6crypto9signature15signature_values_1__NtB7_14SignatureValueNtNtCsbmAr7Tf4vl1_5serde2de11Deserialize11deserializeNtB2_14___FieldVisitorNtB1G_7Visitor9expecting
FN:63,_RNvMNtNtNtCsjQ7CiUSXMgx_13identity_core6crypto9signature15signature_valueNtB2_14SignatureValue6as_jws
FN:38,_RNvMNtNtNtCsjQ7CiUSXMgx_13identity_core6crypto9signature15signature_valueNtB2_14SignatureValue12is_signature
FN:53,_RNvMNtNtNtCsjQ7CiUSXMgx_13identity_core6crypto9signature15signature_valueNtB2_14SignatureValue11into_string
FN:83,_RNvMNtNtNtCsjQ7CiUSXMgx_13identity_core6crypto9signature15signature_valueNtB2_14SignatureValue12as_signature
FN:23,_RNvMNtNtNtCsjQ7CiUSXMgx_13identity_core6crypto9signature15signature_valueNtB2_14SignatureValue7is_none
FN:73,_RNvMNtNtNtCsjQ7CiUSXMgx_13identity_core6crypto9signature15signature_valueNtB2_14SignatureValue8as_proof
FN:28,_RNvMNtNtNtCsjQ7CiUSXMgx_13identity_core6crypto9signature15signature_valueNtB2_14SignatureValue6is_jws
FN:43,_RNvMNtNtNtCsjQ7CiUSXMgx_13identity_core6crypto9signature15signature_valueNtB2_14SignatureValue6as_str
FNDA:0,_RNvMNtNtNtCsdMIo0gejTVK_13identity_core6crypto9signature15signature_valueNtB2_14SignatureValue6as_str
FNDA:0,_RNvMNtNtNtCsdMIo0gejTVK_13identity_core6crypto9signature15signature_valueNtB2_14SignatureValue12as_signature
FNDA:0,_RNvMNtNtNtCsjQ7CiUSXMgx_13identity_core6crypto9signature15signature_valueNtB2_14SignatureValue8is_proof
FNDA:0,_RNvXNvXNvNtNtNtCsjQ7CiUSXMgx_13identity_core6crypto9signature15signature_values_1__NtB7_14SignatureValueNtNtCsbmAr7Tf4vl1_5serde2de11Deserialize11deserializeNtB2_14___FieldVisitorNtB1G_7Visitor9expecting
FNDA:0,_RNvMNtNtNtCsjQ7CiUSXMgx_13identity_core6crypto9signature15signature_valueNtB2_14SignatureValue6as_jws
FNDA:0,_RNvMNtNtNtCsjQ7CiUSXMgx_13identity_core6crypto9signature15signature_valueNtB2_14SignatureValue12is_signature
FNDA:0,_RNvMNtNtNtCsjQ7CiUSXMgx_13identity_core6crypto9signature15signature_valueNtB2_14SignatureValue11into_string
FNDA:0,_RNvMNtNtNtCsjQ7CiUSXMgx_13identity_core6crypto9signature15signature_valueNtB2_14SignatureValue12as_signature
FNDA:0,_RNvMNtNtNtCsjQ7CiUSXMgx_13identity_core6crypto9signature15signature_valueNtB2_14SignatureValue7is_none
FNDA:0,_RNvMNtNtNtCsjQ7CiUSXMgx_13identity_core6crypto9signature15signature_valueNtB2_14SignatureValue8as_proof
FNDA:0,_RNvMNtNtNtCsjQ7CiUSXMgx_13identity_core6crypto9signature15signature_valueNtB2_14SignatureValue6is_jws
FNDA:0,_RNvMNtNtNtCsjQ7CiUSXMgx_13identity_core6crypto9signature15signature_valueNtB2_14SignatureValue6as_str
FNF:10
FNH:0
DA:5,0
DA:23,0
DA:24,0
DA:25,0
DA:28,0
DA:29,0
DA:30,0
DA:33,0
DA:34,0
DA:35,0
DA:38,0
DA:39,0
DA:40,0
DA:43,0
DA:44,0
DA:45,0
DA:46,0
DA:47,0
DA:48,0
DA:50,0
DA:53,0
DA:54,0
DA:55,0
DA:56,0
DA:57,0
DA:58,0
DA:60,0
DA:63,0
DA:64,0
DA:65,0
DA:66,0
DA:67,0
DA:68,0
DA:70,0
DA:73,0
DA:74,0
DA:75,0
DA:76,0
DA:77,0
DA:78,0
DA:80,0
DA:83,0
DA:84,0
DA:85,0
DA:86,0
DA:87,0
DA:88,0
DA:90,0
BRF:0
BFH:0
LF:48
LH:0
end_of_record
SF:identity-core/src/crypto/signature/traits/core.rs
FN:57,_RINvYINtNtNtNtCsjQ7CiUSXMgx_13identity_core6crypto10merkle_key6signer12MerkleSignerNtNtCsfaahmxv2G8K_4sha26sha2566Sha256NtNtNtBa_9signature7ed255197Ed25519EINtNtNtB1Y_6traits4core6SignerINtB6_10SigningKeyB1j_EE16create_signatureNtNtNtCs3sQMjYUjz43_12identity_did10verifiable5tests4ThatEB3K_
FN:57,_RINvYINtNtNtNtCsjQ7CiUSXMgx_13identity_core6crypto10merkle_key6signer12MerkleSignerNtNtNtCsgcTqQQq5qGi_6crypto6hashes7blake2b10Blake2b256NtNtNtBa_9signature7ed255197Ed25519EINtNtNtB2f_6traits4core6SignerINtB6_10SigningKeyB1j_EE16create_signatureNtNtNtCs3sQMjYUjz43_12identity_did10verifiable5tests4ThatEB41_
FN:83,_RINvYINtNtNtNtCsjQ7CiUSXMgx_13identity_core6crypto10merkle_key8verifier14MerkleVerifierNtNtCsfaahmxv2G8K_4sha26sha2566Sha256NtNtNtBa_9signature7ed255197Ed25519EINtNtNtB22_6traits4core8VerifierNtB6_15VerificationKeyE16verify_signatureNtNtNtCs3sQMjYUjz43_12identity_did10verifiable5tests4ThatEB3P_
FN:83,_RINvYINtNtNtNtCsjQ7CiUSXMgx_13identity_core6crypto10merkle_key8verifier14MerkleVerifierNtNtNtCsgcTqQQq5qGi_6crypto6hashes7blake2b10Blake2b256NtNtNtBa_9signature7ed255197Ed25519EINtNtNtB2j_6traits4core8VerifierNtB6_15VerificationKeyE16verify_signatureNtNtNtCs3sQMjYUjz43_12identity_did10verifiable5tests4ThatEB46_
FN:57,_RINvYNtNtNtNtCsjQ7CiUSXMgx_13identity_core6crypto5proof11jcs_ed2551910JcsEd25519INtNtNtNtB9_9signature6traits4core6SignerShE16create_signatureINtNtNtCs3sQMjYUjz43_12identity_did8document8document8DocumentNtNtNtB2n_10verifiable10properties10PropertiesEEB2n_
FN:57,_RINvYNtNtNtNtCsjQ7CiUSXMgx_13identity_core6crypto5proof11jcs_ed2551910JcsEd25519INtNtNtNtB9_9signature6traits4core6SignerShE16create_signatureNtNtNtCs3sQMjYUjz43_12identity_did10verifiable5tests4ThatEB2m_
FN:83,_RINvYNtNtNtNtCsjQ7CiUSXMgx_13identity_core6crypto5proof11jcs_ed2551910JcsEd25519INtNtNtNtB9_9signature6traits4core8VerifierShE16verify_signatureINtNtNtCs3sQMjYUjz43_12identity_did8document8document8DocumentNtNtNtB2p_10verifiable10properties10PropertiesEEB2p_
FN:83,_RINvYNtNtNtNtCsjQ7CiUSXMgx_13identity_core6crypto5proof11jcs_ed2551910JcsEd25519INtNtNtNtB9_9signature6traits4core8VerifierShE16verify_signatureNtNtNtCs3sQMjYUjz43_12identity_did10verifiable5tests4ThatEB2o_
FN:57,_RINvYNtNtNtNtCsjQ7CiUSXMgx_13identity_core6crypto5proof11jcs_ed2551910JcsEd25519INtNtNtNtB9_9signature6traits4core6SignerShE16create_signatureNtNtNtCs9VfPsUr1MEv_19identity_credential10credential10credential10CredentialEB2m_
FN:57,_RINvYINtNtNtNtCsjQ7CiUSXMgx_13identity_core6crypto10merkle_key6signer12MerkleSignerNtNtCsfaahmxv2G8K_4sha26sha2566Sha256NtNtNtBa_9signature7ed255197Ed25519EINtNtNtB1Y_6traits4core6SignerINtB6_10SigningKeyB1j_EE16create_signatureNtNtNtCs9VfPsUr1MEv_19identity_credential10credential10credential10CredentialEB3K_
FN:57,_RINvYINtNtNtNtCsjQ7CiUSXMgx_13identity_core6crypto10merkle_key6signer12MerkleSignerNtNtNtCsgcTqQQq5qGi_6crypto6hashes7blake2b10Blake2b256NtNtNtBa_9signature7ed255197Ed25519EINtNtNtB2f_6traits4core6SignerINtB6_10SigningKeyB1j_EE16create_signatureNtNtNtCs9VfPsUr1MEv_19identity_credential10credential10credential10CredentialEB41_
FN:83,_RINvYNtNtNtNtCsjQ7CiUSXMgx_13identity_core6crypto5proof11jcs_ed2551910JcsEd25519INtNtNtNtB9_9signature6traits4core8VerifierShE16verify_signatureNtNtNtCs1iZZWPuKeP6_19identity_credential12presentation12presentation12PresentationECskt00YjyhLiG_13identity_wasm
FN:83,_RINvYNtNtNtNtCsjQ7CiUSXMgx_13identity_core6crypto5proof11jcs_ed2551910JcsEd25519INtNtNtNtB9_9signature6traits4core8VerifierShE16verify_signatureNtNtNtCsdwuhiSxlwM7_12identity_did10verifiable10properties10PropertiesECskt00YjyhLiG_13identity_wasm
FN:57,_RINvYNtNtNtNtCsjQ7CiUSXMgx_13identity_core6crypto5proof11jcs_ed2551910JcsEd25519INtNtNtNtB9_9signature6traits4core6SignerShE16create_signatureNtNtNtCsdwuhiSxlwM7_12identity_did10verifiable10properties10PropertiesECskt00YjyhLiG_13identity_wasm
FN:83,_RINvYNtNtNtNtCsjQ7CiUSXMgx_13identity_core6crypto5proof11jcs_ed2551910JcsEd25519INtNtNtNtB9_9signature6traits4core8VerifierShE16verify_signatureNtNtNtCs1iZZWPuKeP6_19identity_credential10credential10credential10CredentialECskt00YjyhLiG_13identity_wasm
FN:57,_RINvYINtNtNtNtCsjQ7CiUSXMgx_13identity_core6crypto10merkle_key6signer12MerkleSignerNtNtCsfaahmxv2G8K_4sha26sha2566Sha256NtNtNtBa_9signature7ed255197Ed25519EINtNtNtB1Y_6traits4core6SignerINtB6_10SigningKeyB1j_EE16create_signatureNtNtNtCsdwuhiSxlwM7_12identity_did10verifiable10properties10PropertiesECskt00YjyhLiG_13identity_wasm
FN:57,_RINvYINtNtNtNtCsjQ7CiUSXMgx_13identity_core6crypto10merkle_key6signer12MerkleSignerNtNtNtCsgcTqQQq5qGi_6crypto6hashes7blake2b10Blake2b256NtNtNtBa_9signature7ed255197Ed25519EINtNtNtB2f_6traits4core6SignerINtB6_10SigningKeyB1j_EE16create_signatureNtNtNtCsdwuhiSxlwM7_12identity_did10verifiable10properties10PropertiesECskt00YjyhLiG_13identity_wasm
FN:83,_RINvYINtNtNtNtCsjQ7CiUSXMgx_13identity_core6crypto10merkle_key8verifier14MerkleVerifierNtNtCsfaahmxv2G8K_4sha26sha2566Sha256NtNtNtBa_9signature7ed255197Ed25519EINtNtNtB22_6traits4core8VerifierNtB6_15VerificationKeyE16verify_signatureNtNtNtCs1iZZWPuKeP6_19identity_credential10credential10credential10CredentialECskt00YjyhLiG_13identity_wasm
FN:83,_RINvYINtNtNtNtCsjQ7CiUSXMgx_13identity_core6crypto10merkle_key8verifier14MerkleVerifierNtNtCsfaahmxv2G8K_4sha26sha2566Sha256NtNtNtBa_9signature7ed255197Ed25519EINtNtNtB22_6traits4core8VerifierNtB6_15VerificationKeyE16verify_signatureNtNtNtCs1iZZWPuKeP6_19identity_credential12presentation12presentation12PresentationECskt00YjyhLiG_13identity_wasm
FN:83,_RINvYINtNtNtNtCsjQ7CiUSXMgx_13identity_core6crypto10merkle_key8verifier14MerkleVerifierNtNtCsfaahmxv2G8K_4sha26sha2566Sha256NtNtNtBa_9signature7ed255197Ed25519EINtNtNtB22_6traits4core8VerifierNtB6_15VerificationKeyE16verify_signatureNtNtNtCsdwuhiSxlwM7_12identity_did10verifiable10properties10PropertiesECskt00YjyhLiG_13identity_wasm
FN:83,_RINvYINtNtNtNtCsjQ7CiUSXMgx_13identity_core6crypto10merkle_key8verifier14MerkleVerifierNtNtNtCsgcTqQQq5qGi_6crypto6hashes7blake2b10Blake2b256NtNtNtBa_9signature7ed255197Ed25519EINtNtNtB2j_6traits4core8VerifierNtB6_15VerificationKeyE16verify_signatureNtNtNtCs1iZZWPuKeP6_19identity_credential10credential10credential10CredentialECskt00YjyhLiG_13identity_wasm
FN:83,_RINvYINtNtNtNtCsjQ7CiUSXMgx_13identity_core6crypto10merkle_key8verifier14MerkleVerifierNtNtNtCsgcTqQQq5qGi_6crypto6hashes7blake2b10Blake2b256NtNtNtBa_9signature7ed255197Ed25519EINtNtNtB2j_6traits4core8VerifierNtB6_15VerificationKeyE16verify_signatureNtNtNtCs1iZZWPuKeP6_19identity_credential12presentation12presentation12PresentationECskt00YjyhLiG_13identity_wasm
FN:83,_RINvYINtNtNtNtCsjQ7CiUSXMgx_13identity_core6crypto10merkle_key8verifier14MerkleVerifierNtNtNtCsgcTqQQq5qGi_6crypto6hashes7blake2b10Blake2b256NtNtNtBa_9signature7ed255197Ed25519EINtNtNtB2j_6traits4core8VerifierNtB6_15VerificationKeyE16verify_signatureNtNtNtCsdwuhiSxlwM7_12identity_did10verifiable10properties10PropertiesECskt00YjyhLiG_13identity_wasm
FN:83,_RINvYINtNtNtNtCsjQ7CiUSXMgx_13identity_core6crypto10merkle_key8verifier14MerkleVerifierNtNtCsfaahmxv2G8K_4sha26sha2566Sha256NtNtNtBa_9signature7ed255197Ed25519EINtNtNtB22_6traits4core8VerifierNtB6_15VerificationKeyE16verify_signatureNtNtNtNtCsapfZL3txtKN_13identity_iota3did3doc4diff12DocumentDiffEB3R_
FN:83,_RINvYINtNtNtNtCsjQ7CiUSXMgx_13identity_core6crypto10merkle_key8verifier14MerkleVerifierNtNtNtCsgcTqQQq5qGi_6crypto6hashes7blake2b10Blake2b256NtNtNtBa_9signature7ed255197Ed25519EINtNtNtB2j_6traits4core8VerifierNtB6_15VerificationKeyE16verify_signatureNtNtNtNtCsapfZL3txtKN_13identity_iota3did3doc4diff12DocumentDiffEB48_
FN:83,_RINvYINtNtNtNtCsjQ7CiUSXMgx_13identity_core6crypto10merkle_key8verifier14MerkleVerifierNtNtNtCsgcTqQQq5qGi_6crypto6hashes7blake2b10Blake2b256NtNtNtBa_9signature7ed255197Ed25519EINtNtNtB2j_6traits4core8VerifierNtB6_15VerificationKeyE16verify_signatureNtNtNtNtCsapfZL3txtKN_13identity_iota3did3doc8document8DocumentEB48_
FN:83,_RINvYINtNtNtNtCsjQ7CiUSXMgx_13identity_core6crypto10merkle_key8verifier14MerkleVerifierNtNtCsfaahmxv2G8K_4sha26sha2566Sha256NtNtNtBa_9signature7ed255197Ed25519EINtNtNtB22_6traits4core8VerifierNtB6_15VerificationKeyE16verify_signatureNtNtNtNtCsapfZL3txtKN_13identity_iota3did3doc8document8DocumentEB3R_
FN:57,_RINvYNtNtNtNtCsjQ7CiUSXMgx_13identity_core6crypto5proof11jcs_ed2551910JcsEd25519INtNtNtNtB9_9signature6traits4core6SignerShE16create_signatureINtNtNtCsdwuhiSxlwM7_12identity_did8document8document8DocumentINtNtNtB2n_10verifiable10properties10PropertiesNtNtNtNtCsapfZL3txtKN_13identity_iota3did3doc10properties10PropertiesEINtNtNtNtCslaFPCg94Pel_5alloc11collections5btree3map8BTreeMapNtNtB5i_6string6StringNtNtCs1CNeFI220rp_10serde_json5value5ValueEuEEB49_
FN:57,_RINvYNtNtNtNtCsjQ7CiUSXMgx_13identity_core6crypto5proof11jcs_ed2551910JcsEd25519INtNtNtNtB9_9signature6traits4core6SignerShE16create_signatureNtNtNtNtCsapfZL3txtKN_13identity_iota3did3doc4diff12DocumentDiffEB2o_
FN:83,_RINvYNtNtNtNtCsjQ7CiUSXMgx_13identity_core6crypto5proof11jcs_ed2551910JcsEd25519INtNtNtNtB9_9signature6traits4core8VerifierShE16verify_signatureINtNtNtCsdwuhiSxlwM7_12identity_did8document8document8DocumentINtNtNtB2p_10verifiable10properties10PropertiesNtNtNtNtCsapfZL3txtKN_13identity_iota3did3doc10properties10PropertiesEINtNtNtNtCslaFPCg94Pel_5alloc11collections5btree3map8BTreeMapNtNtB5k_6string6StringNtNtCs1CNeFI220rp_10serde_json5value5ValueEuEEB4b_
FN:83,_RINvYNtNtNtNtCsjQ7CiUSXMgx_13identity_core6crypto5proof11jcs_ed2551910JcsEd25519INtNtNtNtB9_9signature6traits4core8VerifierShE16verify_signatureNtNtNtNtCsapfZL3txtKN_13identity_iota3did3doc8document8DocumentEB2q_
FN:83,_RINvYNtNtNtNtCsjQ7CiUSXMgx_13identity_core6crypto5proof11jcs_ed2551910JcsEd25519INtNtNtNtB9_9signature6traits4core8VerifierShE16verify_signatureNtNtNtNtCsapfZL3txtKN_13identity_iota3did3doc4diff12DocumentDiffEB2q_
FN:57,_RINvYINtNtNtNtCsjQ7CiUSXMgx_13identity_core6crypto10merkle_key6signer12MerkleSignerNtNtNtCsgcTqQQq5qGi_6crypto6hashes7blake2b10Blake2b256NtNtNtBa_9signature7ed255197Ed25519EINtNtNtB2f_6traits4core6SignerINtB6_10SigningKeyB1j_EE16create_signatureNtNtNtNtCsapfZL3txtKN_13identity_iota3did3doc4diff12DocumentDiffEB43_
FN:57,_RINvYINtNtNtNtCsjQ7CiUSXMgx_13identity_core6crypto10merkle_key6signer12MerkleSignerNtNtCsfaahmxv2G8K_4sha26sha2566Sha256NtNtNtBa_9signature7ed255197Ed25519EINtNtNtB1Y_6traits4core6SignerINtB6_10SigningKeyB1j_EE16create_signatureNtNtNtNtCsapfZL3txtKN_13identity_iota3did3doc4diff12DocumentDiffEB3M_
FNDA:0,_RINvYINtNtNtNtCsjQ7CiUSXMgx_13identity_core6crypto10merkle_key6signer12MerkleSignerNtNtCsfaahmxv2G8K_4sha26sha2566Sha256NtNtNtBa_9signature7ed255197Ed25519EINtNtNtB1Y_6traits4core6SignerINtB6_10SigningKeyB1j_EE16create_signatureNtNtNtCs3sQMjYUjz43_12identity_did10verifiable5tests4ThatEB3K_
FNDA:0,_RINvYINtNtNtNtCsjQ7CiUSXMgx_13identity_core6crypto10merkle_key6signer12MerkleSignerNtNtNtCsgcTqQQq5qGi_6crypto6hashes7blake2b10Blake2b256NtNtNtBa_9signature7ed255197Ed25519EINtNtNtB2f_6traits4core6SignerINtB6_10SigningKeyB1j_EE16create_signatureNtNtNtCs3sQMjYUjz43_12identity_did10verifiable5tests4ThatEB41_
FNDA:0,_RINvYINtNtNtNtCsjQ7CiUSXMgx_13identity_core6crypto10merkle_key8verifier14MerkleVerifierNtNtCsfaahmxv2G8K_4sha26sha2566Sha256NtNtNtBa_9signature7ed255197Ed25519EINtNtNtB22_6traits4core8VerifierNtB6_15VerificationKeyE16verify_signatureNtNtNtCs3sQMjYUjz43_12identity_did10verifiable5tests4ThatEB3P_
FNDA:0,_RINvYINtNtNtNtCsjQ7CiUSXMgx_13identity_core6crypto10merkle_key8verifier14MerkleVerifierNtNtNtCsgcTqQQq5qGi_6crypto6hashes7blake2b10Blake2b256NtNtNtBa_9signature7ed255197Ed25519EINtNtNtB2j_6traits4core8VerifierNtB6_15VerificationKeyE16verify_signatureNtNtNtCs3sQMjYUjz43_12identity_did10verifiable5tests4ThatEB46_
FNDA:0,_RINvYNtNtNtNtCsjQ7CiUSXMgx_13identity_core6crypto5proof11jcs_ed2551910JcsEd25519INtNtNtNtB9_9signature6traits4core6SignerShE16create_signatureINtNtNtCs3sQMjYUjz43_12identity_did8document8document8DocumentNtNtNtB2n_10verifiable10properties10PropertiesEEB2n_
FNDA:0,_RINvYNtNtNtNtCsjQ7CiUSXMgx_13identity_core6crypto5proof11jcs_ed2551910JcsEd25519INtNtNtNtB9_9signature6traits4core6SignerShE16create_signatureNtNtNtCs3sQMjYUjz43_12identity_did10verifiable5tests4ThatEB2m_
FNDA:0,_RINvYNtNtNtNtCsjQ7CiUSXMgx_13identity_core6crypto5proof11jcs_ed2551910JcsEd25519INtNtNtNtB9_9signature6traits4core8VerifierShE16verify_signatureINtNtNtCs3sQMjYUjz43_12identity_did8document8document8DocumentNtNtNtB2p_10verifiable10properties10PropertiesEEB2p_
FNDA:0,_RINvYNtNtNtNtCsjQ7CiUSXMgx_13identity_core6crypto5proof11jcs_ed2551910JcsEd25519INtNtNtNtB9_9signature6traits4core8VerifierShE16verify_signatureNtNtNtCs3sQMjYUjz43_12identity_did10verifiable5tests4ThatEB2o_
FNDA:0,_RINvYNtNtNtNtCsjQ7CiUSXMgx_13identity_core6crypto5proof11jcs_ed2551910JcsEd25519INtNtNtNtB9_9signature6traits4core6SignerShE16create_signatureNtNtNtCs9VfPsUr1MEv_19identity_credential10credential10credential10CredentialEB2m_
FNDA:0,_RINvYINtNtNtNtCsjQ7CiUSXMgx_13identity_core6crypto10merkle_key6signer12MerkleSignerNtNtCsfaahmxv2G8K_4sha26sha2566Sha256NtNtNtBa_9signature7ed255197Ed25519EINtNtNtB1Y_6traits4core6SignerINtB6_10SigningKeyB1j_EE16create_signatureNtNtNtCs9VfPsUr1MEv_19identity_credential10credential10credential10CredentialEB3K_
FNDA:0,_RINvYINtNtNtNtCsjQ7CiUSXMgx_13identity_core6crypto10merkle_key6signer12MerkleSignerNtNtNtCsgcTqQQq5qGi_6crypto6hashes7blake2b10Blake2b256NtNtNtBa_9signature7ed255197Ed25519EINtNtNtB2f_6traits4core6SignerINtB6_10SigningKeyB1j_EE16create_signatureNtNtNtCs9VfPsUr1MEv_19identity_credential10credential10credential10CredentialEB41_
FNDA:0,_RINvYNtNtNtNtCsjQ7CiUSXMgx_13identity_core6crypto5proof11jcs_ed2551910JcsEd25519INtNtNtNtB9_9signature6traits4core8VerifierShE16verify_signatureNtNtNtCs1iZZWPuKeP6_19identity_credential12presentation12presentation12PresentationECskt00YjyhLiG_13identity_wasm
FNDA:0,_RINvYNtNtNtNtCsjQ7CiUSXMgx_13identity_core6crypto5proof11jcs_ed2551910JcsEd25519INtNtNtNtB9_9signature6traits4core8VerifierShE16verify_signatureNtNtNtCsdwuhiSxlwM7_12identity_did10verifiable10properties10PropertiesECskt00YjyhLiG_13identity_wasm
FNDA:0,_RINvYNtNtNtNtCsjQ7CiUSXMgx_13identity_core6crypto5proof11jcs_ed2551910JcsEd25519INtNtNtNtB9_9signature6traits4core6SignerShE16create_signatureNtNtNtCsdwuhiSxlwM7_12identity_did10verifiable10properties10PropertiesECskt00YjyhLiG_13identity_wasm
FNDA:0,_RINvYNtNtNtNtCsjQ7CiUSXMgx_13identity_core6crypto5proof11jcs_ed2551910JcsEd25519INtNtNtNtB9_9signature6traits4core8VerifierShE16verify_signatureNtNtNtCs1iZZWPuKeP6_19identity_credential10credential10credential10CredentialECskt00YjyhLiG_13identity_wasm
FNDA:0,_RINvYINtNtNtNtCsjQ7CiUSXMgx_13identity_core6crypto10merkle_key6signer12MerkleSignerNtNtCsfaahmxv2G8K_4sha26sha2566Sha256NtNtNtBa_9signature7ed255197Ed25519EINtNtNtB1Y_6traits4core6SignerINtB6_10SigningKeyB1j_EE16create_signatureNtNtNtCsdwuhiSxlwM7_12identity_did10verifiable10properties10PropertiesECskt00YjyhLiG_13identity_wasm
FNDA:0,_RINvYINtNtNtNtCsjQ7CiUSXMgx_13identity_core6crypto10merkle_key6signer12MerkleSignerNtNtNtCsgcTqQQq5qGi_6crypto6hashes7blake2b10Blake2b256NtNtNtBa_9signature7ed255197Ed25519EINtNtNtB2f_6traits4core6SignerINtB6_10SigningKeyB1j_EE16create_signatureNtNtNtCsdwuhiSxlwM7_12identity_did10verifiable10properties10PropertiesECskt00YjyhLiG_13identity_wasm
FNDA:0,_RINvYINtNtNtNtCsjQ7CiUSXMgx_13identity_core6crypto10merkle_key8verifier14MerkleVerifierNtNtCsfaahmxv2G8K_4sha26sha2566Sha256NtNtNtBa_9signature7ed255197Ed25519EINtNtNtB22_6traits4core8VerifierNtB6_15VerificationKeyE16verify_signatureNtNtNtCs1iZZWPuKeP6_19identity_credential10credential10credential10CredentialECskt00YjyhLiG_13identity_wasm
FNDA:0,_RINvYINtNtNtNtCsjQ7CiUSXMgx_13identity_core6crypto10merkle_key8verifier14MerkleVerifierNtNtCsfaahmxv2G8K_4sha26sha2566Sha256NtNtNtBa_9signature7ed255197Ed25519EINtNtNtB22_6traits4core8VerifierNtB6_15VerificationKeyE16verify_signatureNtNtNtCs1iZZWPuKeP6_19identity_credential12presentation12presentation12PresentationECskt00YjyhLiG_13identity_wasm
FNDA:0,_RINvYINtNtNtNtCsjQ7CiUSXMgx_13identity_core6crypto10merkle_key8verifier14MerkleVerifierNtNtCsfaahmxv2G8K_4sha26sha2566Sha256NtNtNtBa_9signature7ed255197Ed25519EINtNtNtB22_6traits4core8VerifierNtB6_15VerificationKeyE16verify_signatureNtNtNtCsdwuhiSxlwM7_12identity_did10verifiable10properties10PropertiesECskt00YjyhLiG_13identity_wasm
FNDA:0,_RINvYINtNtNtNtCsjQ7CiUSXMgx_13identity_core6crypto10merkle_key8verifier14MerkleVerifierNtNtNtCsgcTqQQq5qGi_6crypto6hashes7blake2b10Blake2b256NtNtNtBa_9signature7ed255197Ed25519EINtNtNtB2j_6traits4core8VerifierNtB6_15VerificationKeyE16verify_signatureNtNtNtCs1iZZWPuKeP6_19identity_credential10credential10credential10CredentialECskt00YjyhLiG_13identity_wasm
FNDA:0,_RINvYINtNtNtNtCsjQ7CiUSXMgx_13identity_core6crypto10merkle_key8verifier14MerkleVerifierNtNtNtCsgcTqQQq5qGi_6crypto6hashes7blake2b10Blake2b256NtNtNtBa_9signature7ed255197Ed25519EINtNtNtB2j_6traits4core8VerifierNtB6_15VerificationKeyE16verify_signatureNtNtNtCs1iZZWPuKeP6_19identity_credential12presentation12presentation12PresentationECskt00YjyhLiG_13identity_wasm
FNDA:0,_RINvYINtNtNtNtCsjQ7CiUSXMgx_13identity_core6crypto10merkle_key8verifier14MerkleVerifierNtNtNtCsgcTqQQq5qGi_6crypto6hashes7blake2b10Blake2b256NtNtNtBa_9signature7ed255197Ed25519EINtNtNtB2j_6traits4core8VerifierNtB6_15VerificationKeyE16verify_signatureNtNtNtCsdwuhiSxlwM7_12identity_did10verifiable10properties10PropertiesECskt00YjyhLiG_13identity_wasm
FNDA:0,_RINvYINtNtNtNtCsjQ7CiUSXMgx_13identity_core6crypto10merkle_key8verifier14MerkleVerifierNtNtCsfaahmxv2G8K_4sha26sha2566Sha256NtNtNtBa_9signature7ed255197Ed25519EINtNtNtB22_6traits4core8VerifierNtB6_15VerificationKeyE16verify_signatureNtNtNtNtCsapfZL3txtKN_13identity_iota3did3doc4diff12DocumentDiffEB3R_
FNDA:0,_RINvYINtNtNtNtCsjQ7CiUSXMgx_13identity_core6crypto10merkle_key8verifier14MerkleVerifierNtNtNtCsgcTqQQq5qGi_6crypto6hashes7blake2b10Blake2b256NtNtNtBa_9signature7ed255197Ed25519EINtNtNtB2j_6traits4core8VerifierNtB6_15VerificationKeyE16verify_signatureNtNtNtNtCsapfZL3txtKN_13identity_iota3did3doc4diff12DocumentDiffEB48_
FNDA:0,_RINvYINtNtNtNtCsjQ7CiUSXMgx_13identity_core6crypto10merkle_key8verifier14MerkleVerifierNtNtNtCsgcTqQQq5qGi_6crypto6hashes7blake2b10Blake2b256NtNtNtBa_9signature7ed255197Ed25519EINtNtNtB2j_6traits4core8VerifierNtB6_15VerificationKeyE16verify_signatureNtNtNtNtCsapfZL3txtKN_13identity_iota3did3doc8document8DocumentEB48_
FNDA:0,_RINvYINtNtNtNtCsjQ7CiUSXMgx_13identity_core6crypto10merkle_key8verifier14MerkleVerifierNtNtCsfaahmxv2G8K_4sha26sha2566Sha256NtNtNtBa_9signature7ed255197Ed25519EINtNtNtB22_6traits4core8VerifierNtB6_15VerificationKeyE16verify_signatureNtNtNtNtCsapfZL3txtKN_13identity_iota3did3doc8document8DocumentEB3R_
FNDA:0,_RINvYNtNtNtNtCsjQ7CiUSXMgx_13identity_core6crypto5proof11jcs_ed2551910JcsEd25519INtNtNtNtB9_9signature6traits4core6SignerShE16create_signatureINtNtNtCsdwuhiSxlwM7_12identity_did8document8document8DocumentINtNtNtB2n_10verifiable10properties10PropertiesNtNtNtNtCsapfZL3txtKN_13identity_iota3did3doc10properties10PropertiesEINtNtNtNtCslaFPCg94Pel_5alloc11collections5btree3map8BTreeMapNtNtB5i_6string6StringNtNtCs1CNeFI220rp_10serde_json5value5ValueEuEEB49_
FNDA:0,_RINvYNtNtNtNtCsjQ7CiUSXMgx_13identity_core6crypto5proof11jcs_ed2551910JcsEd25519INtNtNtNtB9_9signature6traits4core6SignerShE16create_signatureNtNtNtNtCsapfZL3txtKN_13identity_iota3did3doc4diff12DocumentDiffEB2o_
FNDA:0,_RINvYNtNtNtNtCsjQ7CiUSXMgx_13identity_core6crypto5proof11jcs_ed2551910JcsEd25519INtNtNtNtB9_9signature6traits4core8VerifierShE16verify_signatureINtNtNtCsdwuhiSxlwM7_12identity_did8document8document8DocumentINtNtNtB2p_10verifiable10properties10PropertiesNtNtNtNtCsapfZL3txtKN_13identity_iota3did3doc10properties10PropertiesEINtNtNtNtCslaFPCg94Pel_5alloc11collections5btree3map8BTreeMapNtNtB5k_6string6StringNtNtCs1CNeFI220rp_10serde_json5value5ValueEuEEB4b_
FNDA:0,_RINvYNtNtNtNtCsjQ7CiUSXMgx_13identity_core6crypto5proof11jcs_ed2551910JcsEd25519INtNtNtNtB9_9signature6traits4core8VerifierShE16verify_signatureNtNtNtNtCsapfZL3txtKN_13identity_iota3did3doc8document8DocumentEB2q_
FNDA:0,_RINvYNtNtNtNtCsjQ7CiUSXMgx_13identity_core6crypto5proof11jcs_ed2551910JcsEd25519INtNtNtNtB9_9signature6traits4core8VerifierShE16verify_signatureNtNtNtNtCsapfZL3txtKN_13identity_iota3did3doc4diff12DocumentDiffEB2q_
FNDA:0,_RINvYINtNtNtNtCsjQ7CiUSXMgx_13identity_core6crypto10merkle_key6signer12MerkleSignerNtNtNtCsgcTqQQq5qGi_6crypto6hashes7blake2b10Blake2b256NtNtNtBa_9signature7ed255197Ed25519EINtNtNtB2f_6traits4core6SignerINtB6_10SigningKeyB1j_EE16create_signatureNtNtNtNtCsapfZL3txtKN_13identity_iota3did3doc4diff12DocumentDiffEB43_
FNDA:0,_RINvYINtNtNtNtCsjQ7CiUSXMgx_13identity_core6crypto10merkle_key6signer12MerkleSignerNtNtCsfaahmxv2G8K_4sha26sha2566Sha256NtNtNtBa_9signature7ed255197Ed25519EINtNtNtB1Y_6traits4core6SignerINtB6_10SigningKeyB1j_EE16create_signatureNtNtNtNtCsapfZL3txtKN_13identity_iota3did3doc4diff12DocumentDiffEB3M_
FNF:2
FNH:0
DA:57,0
DA:58,0
DA:59,0
DA:60,0
DA:61,0
DA:63,0
DA:64,0
DA:66,0
DA:67,0
DA:68,0
DA:69,0
DA:83,0
DA:84,0
DA:85,0
DA:86,0
DA:87,0
DA:89,0
DA:90,0
DA:91,0
DA:92,0
DA:93,0
DA:95,0
DA:97,0
DA:98,0
DA:99,0
DA:100,0
BRF:0
BFH:0
LF:26
LH:0
end_of_record
SF:identity-core/src/utils/generate_ed25519.rs
FN:11,_RNvNtNtCsdMIo0gejTVK_13identity_core5utils16generate_ed2551916generate_ed25519
FN:22,_RNvNtNtCsdMIo0gejTVK_13identity_core5utils16generate_ed2551921generate_ed25519_list
FN:11,_RNvNtNtCsjQ7CiUSXMgx_13identity_core5utils16generate_ed2551916generate_ed25519
FN:22,_RNvNtNtCsjQ7CiUSXMgx_13identity_core5utils16generate_ed2551921generate_ed25519_list
FNDA:0,_RNvNtNtCsdMIo0gejTVK_13identity_core5utils16generate_ed2551916generate_ed25519
FNDA:0,_RNvNtNtCsdMIo0gejTVK_13identity_core5utils16generate_ed2551921generate_ed25519_list
FNDA:0,_RNvNtNtCsjQ7CiUSXMgx_13identity_core5utils16generate_ed2551916generate_ed25519
FNDA:0,_RNvNtNtCsjQ7CiUSXMgx_13identity_core5utils16generate_ed2551921generate_ed25519_list
FNF:2
FNH:0
DA:11,0
DA:12,0
DA:13,0
DA:14,0
DA:15,0
DA:16,0
DA:17,0
DA:18,0
DA:19,0
DA:22,0
DA:23,0
DA:24,0
BRF:0
BFH:0
LF:12
LH:0
end_of_record
SF:identity-credential/src/credential/builder.rs
FN:21,_RNvNtNtNtCs9VfPsUr1MEv_19identity_credential10credential7builder5tests6issuer
FN:224,_RNvNtNtNtCs9VfPsUr1MEv_19identity_credential10credential7builder5testss_29test_credential_builder_valid
FNDA:0,_RNvNtNtNtCs9VfPsUr1MEv_19identity_credential10credential7builder5tests6issuer
FNDA:0,_RNvNtNtNtCs9VfPsUr1MEv_19identity_credential10credential7builder5testss_29test_credential_builder_valid
FNF:2
FNH:0
DA:21,0
DA:104,0
DA:105,0
DA:106,0
DA:107,0
DA:111,0
DA:112,0
DA:113,0
DA:114,0
DA:118,0
DA:119,0
DA:120,0
DA:121,0
DA:125,0
DA:126,0
DA:127,0
DA:128,0
DA:132,0
DA:133,0
DA:134,0
DA:135,0
DA:139,0
DA:140,0
DA:141,0
DA:142,0
DA:146,0
DA:147,0
DA:148,0
DA:149,0
DA:160,0
DA:161,0
DA:162,0
DA:163,0
DA:164,0
DA:165,0
DA:166,0
DA:167,0
DA:171,0
DA:172,0
DA:173,0
DA:174,0
DA:175,0
DA:176,0
DA:177,0
DA:178,0
DA:179,0
DA:180,0
DA:181,0
DA:218,0
DA:219,0
DA:220,0
DA:224,0
DA:225,0
DA:226,0
DA:227,0
DA:228,0
DA:229,0
DA:230,0
DA:231,0
DA:232,0
DA:233,0
DA:235,0
DA:236,0
DA:237,0
DA:238,0
DA:239,0
DA:240,0
DA:241,0
DA:242,0
DA:243,0
DA:244,0
DA:245,0
DA:246,0
DA:247,0
DA:248,0
BRF:0
BFH:0
LF:75
LH:0
end_of_record
SF:identity-credential/src/credential/credential.rs
FN:104,_RNvMNtNtCs9VfPsUr1MEv_19identity_credential10credential10credentialNtB2_10Credential12from_builderB6_
FN:131,_RNvMNtNtCs9VfPsUr1MEv_19identity_credential10credential10credentialNtB2_10Credential15check_structureB6_
FN:36,_RNvNtNtNtCs9VfPsUr1MEv_19identity_credential10credential10credential5testss_14test_from_json
FN:104,_RNvMNtNtCs1iZZWPuKeP6_19identity_credential10credential10credentialNtB2_10Credential12from_builderCskt00YjyhLiG_13identity_wasm
FN:131,_RNvMNtNtCs1iZZWPuKeP6_19identity_credential10credential10credentialNtB2_10Credential15check_structureCskt00YjyhLiG_13identity_wasm
FNDA:0,_RNvMNtNtCs9VfPsUr1MEv_19identity_credential10credential10credentialNtB2_10Credential12from_builderB6_
FNDA:0,_RNvMNtNtCs9VfPsUr1MEv_19identity_credential10credential10credentialNtB2_10Credential15check_structureB6_
FNDA:0,_RNvNtNtNtCs9VfPsUr1MEv_19identity_credential10credential10credential5testss_14test_from_json
FNDA:0,_RNvMNtNtCs1iZZWPuKeP6_19identity_credential10credential10credentialNtB2_10Credential12from_builderCskt00YjyhLiG_13identity_wasm
FNDA:0,_RNvMNtNtCs1iZZWPuKeP6_19identity_credential10credential10credentialNtB2_10Credential15check_structureCskt00YjyhLiG_13identity_wasm
FNF:3
FNH:0
DA:36,0
DA:99,0
DA:100,0
DA:101,0
DA:104,0
DA:105,0
DA:106,0
DA:107,0
DA:108,0
DA:109,0
DA:110,0
DA:111,0
DA:112,0
DA:113,0
DA:114,0
DA:115,0
DA:116,0
DA:117,0
DA:118,0
DA:119,0
DA:120,0
DA:123,0
DA:125,0
DA:126,0
DA:131,0
DA:132,0
DA:133,0
DA:137,0
DA:138,0
DA:139,0
DA:140,0
DA:141,0
DA:142,0
DA:143,0
DA:144,0
DA:147,0
DA:148,0
DA:149,0
DA:150,0
DA:153,0
DA:154,0
DA:162,0
DA:163,0
DA:164,0
DA:171,0
DA:172,0
DA:173,0
DA:175,0
DA:177,0
DA:181,0
DA:182,0
DA:183,0
DA:217,0
DA:218,0
DA:219,0
DA:220,0
DA:221,0
DA:222,0
DA:223,0
DA:224,0
DA:225,0
DA:226,0
DA:227,0
DA:228,0
DA:229,0
DA:230,0
BRF:0
BFH:0
LF:66
LH:0
end_of_record
SF:identity-credential/src/credential/evidence.rs
FN:82,_RNvNtNtNtCs9VfPsUr1MEv_19identity_credential10credential8evidence5testss_14test_from_json
FN:10,_RNvXNvXNvNtNtCs1iZZWPuKeP6_19identity_credential10credential8evidences_1__NtB7_8EvidenceNtNtCsbmAr7Tf4vl1_5serde2de11Deserialize11deserializeNtB2_14___FieldVisitorNtB1q_7Visitor9expecting
FNDA:0,_RNvNtNtNtCs9VfPsUr1MEv_19identity_credential10credential8evidence5testss_14test_from_json
FNDA:0,_RNvXNvXNvNtNtCs1iZZWPuKeP6_19identity_credential10credential8evidences_1__NtB7_8EvidenceNtNtCsbmAr7Tf4vl1_5serde2de11Deserialize11deserializeNtB2_14___FieldVisitorNtB1q_7Visitor9expecting
FNF:2
FNH:0
DA:10,0
DA:25,0
DA:26,0
DA:27,0
DA:28,0
DA:29,0
DA:30,0
DA:33,0
DA:34,0
DA:35,0
DA:36,0
DA:37,0
DA:38,0
DA:39,0
DA:40,0
DA:41,0
DA:42,0
DA:43,0
DA:46,0
DA:47,0
DA:48,0
DA:49,0
DA:50,0
DA:51,0
DA:52,0
DA:53,0
DA:54,0
DA:55,0
DA:58,0
DA:59,0
DA:60,0
DA:61,0
DA:62,0
DA:63,0
DA:64,0
DA:65,0
DA:66,0
DA:67,0
DA:68,0
DA:82,0
DA:83,0
DA:84,0
DA:85,0
DA:86,0
DA:87,0
DA:88,0
DA:89,0
DA:91,0
DA:92,0
DA:93,0
DA:94,0
DA:95,0
DA:96,0
DA:97,0
DA:98,0
BRF:0
BFH:0
LF:55
LH:0
end_of_record
SF:identity-credential/src/credential/issuer.rs
FN:60,_RNvNtNtNtCs9VfPsUr1MEv_19identity_credential10credential6issuer5testss_14test_from_json
FN:10,_RNvXNvXNvNtNtCs9VfPsUr1MEv_19identity_credential10credential6issuers_1__NtB7_10IssuerDataNtNtCsbmAr7Tf4vl1_5serde2de11Deserialize11deserializeNtB2_14___FieldVisitorNtB1r_7Visitor9expecting
FN:33,_RNvMNtNtCs9VfPsUr1MEv_19identity_credential10credential6issuerNtB2_6Issuer3url
FN:10,_RNvXs0_NvXNvNtNtCs1iZZWPuKeP6_19identity_credential10credential6issuers_1__NtBa_10IssuerDataNtNtCsbmAr7Tf4vl1_5serde2de11Deserialize11deserializeNtB5_9___VisitorNtB1u_7Visitor9expecting
FN:33,_RNvMNtNtCs1iZZWPuKeP6_19identity_credential10credential6issuerNtB2_6Issuer3url
FNDA:0,_RNvNtNtNtCs9VfPsUr1MEv_19identity_credential10credential6issuer5testss_14test_from_json
FNDA:0,_RNvXNvXNvNtNtCs9VfPsUr1MEv_19identity_credential10credential6issuers_1__NtB7_10IssuerDataNtNtCsbmAr7Tf4vl1_5serde2de11Deserialize11deserializeNtB2_14___FieldVisitorNtB1r_7Visitor9expecting
FNDA:0,_RNvMNtNtCs9VfPsUr1MEv_19identity_credential10credential6issuerNtB2_6Issuer3url
FNDA:0,_RNvXs0_NvXNvNtNtCs1iZZWPuKeP6_19identity_credential10credential6issuers_1__NtBa_10IssuerDataNtNtCsbmAr7Tf4vl1_5serde2de11Deserialize11deserializeNtB5_9___VisitorNtB1u_7Visitor9expecting
FNDA:0,_RNvMNtNtCs1iZZWPuKeP6_19identity_credential10credential6issuerNtB2_6Issuer3url
FNF:3
FNH:0
DA:10,0
DA:22,0
DA:33,0
DA:34,0
DA:35,0
DA:36,0
DA:38,0
DA:45,0
DA:46,0
DA:47,0
DA:60,0
DA:61,0
DA:62,0
DA:63,0
DA:65,0
DA:66,0
DA:67,0
DA:68,0
BRF:0
BFH:0
LF:18
LH:0
end_of_record
SF:identity-credential/src/credential/policy.rs
FN:86,_RNvNtNtNtCs9VfPsUr1MEv_19identity_credential10credential6policy5testss_14test_from_json
FN:12,_RNvXNvXNvNtNtCs1iZZWPuKeP6_19identity_credential10credential6policys_1__NtB7_6PolicyNtNtCsbmAr7Tf4vl1_5serde2de11Deserialize11deserializeNtB2_14___FieldVisitorNtB1m_7Visitor9expecting
FNDA:0,_RNvNtNtNtCs9VfPsUr1MEv_19identity_credential10credential6policy5testss_14test_from_json
FNDA:0,_RNvXNvXNvNtNtCs1iZZWPuKeP6_19identity_credential10credential6policys_1__NtB7_6PolicyNtNtCsbmAr7Tf4vl1_5serde2de11Deserialize11deserializeNtB2_14___FieldVisitorNtB1m_7Visitor9expecting
FNF:2
FNH:0
DA:12,0
DA:27,0
DA:28,0
DA:29,0
DA:30,0
DA:31,0
DA:32,0
DA:33,0
DA:34,0
DA:35,0
DA:36,0
DA:39,0
DA:40,0
DA:41,0
DA:42,0
DA:43,0
DA:44,0
DA:45,0
DA:46,0
DA:47,0
DA:48,0
DA:51,0
DA:52,0
DA:53,0
DA:54,0
DA:55,0
DA:56,0
DA:57,0
DA:58,0
DA:59,0
DA:60,0
DA:63,0
DA:64,0
DA:65,0
DA:66,0
DA:67,0
DA:68,0
DA:69,0
DA:70,0
DA:71,0
DA:72,0
DA:86,0
DA:87,0
DA:88,0
DA:89,0
DA:90,0
DA:91,0
DA:92,0
DA:93,0
DA:94,0
DA:97,0
DA:98,0
DA:99,0
DA:100,0
DA:101,0
DA:102,0
DA:103,0
DA:104,0
DA:105,0
BRF:0
BFH:0
LF:59
LH:0
end_of_record
SF:identity-credential/src/credential/refresh.rs
FN:11,_RNvNtNtNtCs9VfPsUr1MEv_19identity_credential10credential7refresh5testss_14test_from_json
FN:11,_RNvXs0_NvXNvNtNtCs1iZZWPuKeP6_19identity_credential10credential7refreshs_1__NtBa_7RefreshNtNtCsbmAr7Tf4vl1_5serde2de11Deserialize11deserializeNtB5_9___VisitorNtB1r_7Visitor9expecting
FNDA:0,_RNvNtNtNtCs9VfPsUr1MEv_19identity_credential10credential7refresh5testss_14test_from_json
FNDA:0,_RNvXs0_NvXNvNtNtCs1iZZWPuKeP6_19identity_credential10credential7refreshs_1__NtBa_7RefreshNtNtCsbmAr7Tf4vl1_5serde2de11Deserialize11deserializeNtB5_9___VisitorNtB1r_7Visitor9expecting
FNF:1
FNH:0
DA:11,0
DA:25,0
DA:26,0
DA:27,0
DA:28,0
DA:29,0
DA:30,0
DA:33,0
DA:34,0
DA:35,0
DA:36,0
DA:37,0
DA:38,0
DA:39,0
DA:40,0
DA:41,0
DA:42,0
DA:54,0
DA:55,0
DA:56,0
DA:57,0
DA:58,0
BRF:0
BFH:0
LF:22
LH:0
end_of_record
SF:identity-credential/src/credential/schema.rs
FN:11,_RNvNtNtNtCs9VfPsUr1MEv_19identity_credential10credential6schema5testss_14test_from_json
FN:11,_RNvXs1_NtNtCs1iZZWPuKeP6_19identity_credential10credential6schemaNtB5_6SchemaNtNtCs4RZURTQcbNt_4core3fmt5Debug3fmt
FNDA:0,_RNvNtNtNtCs9VfPsUr1MEv_19identity_credential10credential6schema5testss_14test_from_json
FNDA:0,_RNvXs1_NtNtCs1iZZWPuKeP6_19identity_credential10credential6schemaNtB5_6SchemaNtNtCs4RZURTQcbNt_4core3fmt5Debug3fmt
FNF:1
FNH:0
DA:11,0
DA:25,0
DA:26,0
DA:27,0
DA:28,0
DA:29,0
DA:30,0
DA:33,0
DA:34,0
DA:35,0
DA:36,0
DA:37,0
DA:38,0
DA:39,0
DA:40,0
DA:41,0
DA:42,0
DA:56,0
DA:57,0
DA:58,0
DA:59,0
DA:61,0
DA:62,0
DA:63,0
DA:65,0
DA:66,0
DA:68,0
DA:71,0
BRF:0
BFH:0
LF:28
LH:0
end_of_record
SF:identity-credential/src/credential/status.rs
FN:11,_RNvNtNtNtCs9VfPsUr1MEv_19identity_credential10credential6status5testss_14test_from_json
FN:11,_RNvXNvXNvNtNtCs1iZZWPuKeP6_19identity_credential10credential6statuss_1__NtB7_6StatusNtNtCsbmAr7Tf4vl1_5serde2de11Deserialize11deserializeNtB2_14___FieldVisitorNtB1m_7Visitor9expecting
FNDA:0,_RNvNtNtNtCs9VfPsUr1MEv_19identity_credential10credential6status5testss_14test_from_json
FNDA:0,_RNvXNvXNvNtNtCs1iZZWPuKeP6_19identity_credential10credential6statuss_1__NtB7_6StatusNtNtCsbmAr7Tf4vl1_5serde2de11Deserialize11deserializeNtB2_14___FieldVisitorNtB1m_7Visitor9expecting
FNF:1
FNH:0
DA:11,0
DA:25,0
DA:26,0
DA:27,0
DA:28,0
DA:29,0
DA:30,0
DA:33,0
DA:34,0
DA:35,0
DA:36,0
DA:37,0
DA:38,0
DA:39,0
DA:40,0
DA:41,0
DA:42,0
DA:54,0
DA:55,0
DA:56,0
DA:57,0
DA:58,0
BRF:0
BFH:0
LF:22
LH:0
end_of_record
SF:identity-credential/src/credential/subject.rs
FN:64,_RNvNtNtNtCs9VfPsUr1MEv_19identity_credential10credential7subject5testss_14test_from_json
FN:10,_RNvXNvXNvNtNtCs1iZZWPuKeP6_19identity_credential10credential7subjects_1__NtB7_7SubjectNtNtCsbmAr7Tf4vl1_5serde2de11Deserialize11deserializeNtB2_14___FieldVisitorNtB1o_7Visitor9expecting
FNDA:0,_RNvNtNtNtCs9VfPsUr1MEv_19identity_credential10credential7subject5testss_14test_from_json
FNDA:0,_RNvXNvXNvNtNtCs1iZZWPuKeP6_19identity_credential10credential7subjects_1__NtB7_7SubjectNtNtCsbmAr7Tf4vl1_5serde2de11Deserialize11deserializeNtB2_14___FieldVisitorNtB1o_7Visitor9expecting
FNF:2
FNH:0
DA:10,0
DA:64,0
DA:65,0
DA:66,0
DA:67,0
DA:68,0
DA:69,0
DA:70,0
DA:71,0
DA:73,0
DA:74,0
DA:75,0
DA:76,0
DA:78,0
DA:79,0
DA:80,0
DA:82,0
DA:83,0
DA:84,0
DA:85,0
DA:87,0
DA:88,0
DA:89,0
DA:90,0
DA:91,0
DA:92,0
DA:94,0
DA:95,0
DA:96,0
DA:98,0
DA:99,0
DA:100,0
DA:101,0
DA:102,0
DA:104,0
DA:105,0
DA:106,0
DA:108,0
DA:109,0
DA:110,0
DA:111,0
DA:112,0
DA:113,0
DA:114,0
DA:115,0
DA:117,0
DA:118,0
DA:119,0
DA:120,0
DA:121,0
DA:122,0
DA:123,0
DA:124,0
DA:125,0
BRF:0
BFH:0
LF:54
LH:0
end_of_record
SF:identity-credential/src/error.rs
FN:10,_RNvXs1_NtCs9VfPsUr1MEv_19identity_credential5errorNtB5_5ErrorNtNtCs4RZURTQcbNt_4core3fmt5Debug3fmt
FNDA:0,_RNvXs1_NtCs9VfPsUr1MEv_19identity_credential5errorNtB5_5ErrorNtNtCs4RZURTQcbNt_4core3fmt5Debug3fmt
FNF:1
FNH:0
DA:10,0
BRF:0
BFH:0
LF:1
LH:0
end_of_record
SF:identity-credential/src/presentation/builder.rs
FN:16,_RNvNtNtNtCs9VfPsUr1MEv_19identity_credential12presentation7builder5tests7subject
FN:175,_RNvNtNtNtCs9VfPsUr1MEv_19identity_credential12presentation7builder5testss_31test_presentation_builder_valid
FNDA:0,_RNvNtNtNtCs9VfPsUr1MEv_19identity_credential12presentation7builder5tests7subject
FNDA:0,_RNvNtNtNtCs9VfPsUr1MEv_19identity_credential12presentation7builder5testss_31test_presentation_builder_valid
FNF:2
FNH:0
DA:16,0
DA:45,0
DA:46,0
DA:47,0
DA:48,0
DA:52,0
DA:53,0
DA:54,0
DA:55,0
DA:73,0
DA:74,0
DA:75,0
DA:76,0
DA:80,0
DA:81,0
DA:82,0
DA:83,0
DA:87,0
DA:88,0
DA:89,0
DA:90,0
DA:101,0
DA:102,0
DA:103,0
DA:104,0
DA:105,0
DA:106,0
DA:107,0
DA:108,0
DA:112,0
DA:113,0
DA:114,0
DA:115,0
DA:116,0
DA:117,0
DA:118,0
DA:119,0
DA:120,0
DA:121,0
DA:122,0
DA:157,0
DA:158,0
DA:159,0
DA:160,0
DA:161,0
DA:162,0
DA:163,0
DA:164,0
DA:165,0
DA:166,0
DA:167,0
DA:175,0
DA:176,0
DA:177,0
DA:178,0
DA:179,0
DA:180,0
DA:181,0
DA:182,0
DA:183,0
DA:184,0
DA:185,0
DA:186,0
DA:187,0
DA:188,0
DA:189,0
DA:190,0
DA:191,0
DA:192,0
DA:193,0
DA:194,0
DA:195,0
DA:196,0
DA:197,0
DA:198,0
DA:199,0
DA:200,0
DA:201,0
DA:202,0
DA:203,0
DA:204,0
DA:205,0
DA:206,0
DA:208,0
DA:209,0
DA:210,0
DA:211,0
DA:212,0
DA:213,0
DA:214,0
DA:215,0
DA:216,0
BRF:0
BFH:0
LF:92
LH:0
end_of_record
SF:identity-credential/src/presentation/presentation.rs
FN:98,_RNvMNtNtCs9VfPsUr1MEv_19identity_credential12presentation12presentationNtB2_12Presentation15check_structureB6_
FN:77,_RNvMNtNtCs9VfPsUr1MEv_19identity_credential12presentation12presentationNtB2_12Presentation12from_builderB6_
FN:170,_RNvNtNtNtCs9VfPsUr1MEv_19identity_credential12presentation12presentation5testss_14test_from_json
FN:77,_RNvMNtNtCs1iZZWPuKeP6_19identity_credential12presentation12presentationNtB2_12Presentation12from_builderCskt00YjyhLiG_13identity_wasm
FN:98,_RNvMNtNtCs1iZZWPuKeP6_19identity_credential12presentation12presentationNtB2_12Presentation15check_structureCskt00YjyhLiG_13identity_wasm
FNDA:0,_RNvMNtNtCs9VfPsUr1MEv_19identity_credential12presentation12presentationNtB2_12Presentation15check_structureB6_
FNDA:0,_RNvMNtNtCs9VfPsUr1MEv_19identity_credential12presentation12presentationNtB2_12Presentation12from_builderB6_
FNDA:0,_RNvNtNtNtCs9VfPsUr1MEv_19identity_credential12presentation12presentation5testss_14test_from_json
FNDA:0,_RNvMNtNtCs1iZZWPuKeP6_19identity_credential12presentation12presentationNtB2_12Presentation12from_builderCskt00YjyhLiG_13identity_wasm
FNDA:0,_RNvMNtNtCs1iZZWPuKeP6_19identity_credential12presentation12presentationNtB2_12Presentation15check_structureCskt00YjyhLiG_13identity_wasm
FNF:3
FNH:0
DA:77,0
DA:78,0
DA:79,0
DA:80,0
DA:81,0
DA:82,0
DA:83,0
DA:84,0
DA:85,0
DA:86,0
DA:87,0
DA:88,0
DA:90,0
DA:92,0
DA:93,0
DA:98,0
DA:99,0
DA:100,0
DA:104,0
DA:105,0
DA:106,0
DA:109,0
DA:110,0
DA:113,0
DA:114,0
DA:170,0
DA:171,0
DA:172,0
DA:173,0
DA:175,0
DA:176,0
DA:177,0
DA:178,0
DA:180,0
DA:181,0
DA:182,0
DA:183,0
DA:184,0
DA:185,0
DA:187,0
DA:188,0
DA:189,0
DA:190,0
BRF:0
BFH:0
LF:43
LH:0
end_of_record
SF:identity-did/src/diff/document.rs
FN:62,_RNvXNtNtCsdwuhiSxlwM7_12identity_did4diff8documentNtNtNtB6_8document8document8DocumentNtNtCskxz0FW6fCEL_13identity_diff6traits4Diff4diffCsapfZL3txtKN_13identity_iota
FN:126,_RNvXNtNtCsdwuhiSxlwM7_12identity_did4diff8documentNtNtNtB6_8document8document8DocumentNtNtCskxz0FW6fCEL_13identity_diff6traits4Diff5mergeCsapfZL3txtKN_13identity_iota
FN:136,_RNCNvXNtNtCsdwuhiSxlwM7_12identity_did4diff8documentNtNtNtB8_8document8document8DocumentNtNtCskxz0FW6fCEL_13identity_diff6traits4Diff5merges0_0CsapfZL3txtKN_13identity_iota
FNDA:0,_RNvXNtNtCsdwuhiSxlwM7_12identity_did4diff8documentNtNtNtB6_8document8document8DocumentNtNtCskxz0FW6fCEL_13identity_diff6traits4Diff4diffCsapfZL3txtKN_13identity_iota
FNDA:0,_RNvXNtNtCsdwuhiSxlwM7_12identity_did4diff8documentNtNtNtB6_8document8document8DocumentNtNtCskxz0FW6fCEL_13identity_diff6traits4Diff5mergeCsapfZL3txtKN_13identity_iota
FNDA:0,_RNCNvXNtNtCsdwuhiSxlwM7_12identity_did4diff8documentNtNtNtB8_8document8document8DocumentNtNtCskxz0FW6fCEL_13identity_diff6traits4Diff5merges0_0CsapfZL3txtKN_13identity_iota
FNF:3
FNH:0
DA:62,0
DA:64,0
DA:65,0
DA:67,0
DA:69,0
DA:70,0
DA:72,0
DA:73,0
DA:74,0
DA:75,0
DA:78,0
DA:79,0
DA:81,0
DA:83,0
DA:84,0
DA:86,0
DA:88,0
DA:89,0
DA:91,0
DA:93,0
DA:94,0
DA:96,0
DA:98,0
DA:99,0
DA:101,0
DA:103,0
DA:104,0
DA:106,0
DA:108,0
DA:109,0
DA:111,0
DA:113,0
DA:114,0
DA:116,0
DA:118,0
DA:119,0
DA:121,0
DA:124,0
DA:126,0
DA:127,0
DA:128,0
DA:129,0
DA:130,0
DA:131,0
DA:133,0
DA:134,0
DA:135,0
DA:136,0
DA:137,0
DA:139,0
DA:140,0
DA:141,0
DA:142,0
DA:143,0
DA:145,0
DA:146,0
DA:147,0
DA:148,0
DA:149,0
DA:151,0
DA:152,0
DA:153,0
DA:154,0
DA:157,0
DA:158,0
DA:159,0
DA:160,0
DA:161,0
DA:163,0
DA:164,0
DA:165,0
DA:166,0
DA:167,0
DA:169,0
DA:170,0
DA:171,0
DA:172,0
DA:173,0
DA:175,0
DA:176,0
DA:177,0
DA:178,0
DA:179,0
DA:181,0
DA:182,0
DA:183,0
DA:184,0
DA:187,0
DA:188,0
DA:189,0
DA:190,0
DA:191,0
DA:193,0
DA:194,0
DA:195,0
DA:196,0
DA:197,0
DA:198,0
DA:199,0
DA:200,0
DA:201,0
DA:202,0
DA:203,0
DA:204,0
DA:205,0
DA:206,0
BRF:0
BFH:0
LF:107
LH:0
end_of_record
SF:identity-did/src/diff/method.rs
FN:71,_RNvXNtNtCsdwuhiSxlwM7_12identity_did4diff6methodNtNtNtB6_12verification6method6MethodNtNtCskxz0FW6fCEL_13identity_diff6traits4Diff5mergeCsapfZL3txtKN_13identity_iota
FN:151,_RNvXNtNtCsdwuhiSxlwM7_12identity_did4diff6methodNtNtNtB6_12verification6method6MethodNtNtCskxz0FW6fCEL_13identity_diff6traits4Diff9into_diffCsapfZL3txtKN_13identity_iota
FN:41,_RNvXNtNtCsdwuhiSxlwM7_12identity_did4diff6methodNtNtNtB6_12verification6method6MethodNtNtCskxz0FW6fCEL_13identity_diff6traits4Diff4diffCsapfZL3txtKN_13identity_iota
FN:111,_RNvXNtNtCsdwuhiSxlwM7_12identity_did4diff6methodNtNtNtB6_12verification6method6MethodNtNtCskxz0FW6fCEL_13identity_diff6traits4Diff9from_diffCsapfZL3txtKN_13identity_iota
FNDA:0,_RNvXNtNtCsdwuhiSxlwM7_12identity_did4diff6methodNtNtNtB6_12verification6method6MethodNtNtCskxz0FW6fCEL_13identity_diff6traits4Diff5mergeCsapfZL3txtKN_13identity_iota
FNDA:0,_RNvXNtNtCsdwuhiSxlwM7_12identity_did4diff6methodNtNtNtB6_12verification6method6MethodNtNtCskxz0FW6fCEL_13identity_diff6traits4Diff9into_diffCsapfZL3txtKN_13identity_iota
FNDA:0,_RNvXNtNtCsdwuhiSxlwM7_12identity_did4diff6methodNtNtNtB6_12verification6method6MethodNtNtCskxz0FW6fCEL_13identity_diff6traits4Diff4diffCsapfZL3txtKN_13identity_iota
FNDA:0,_RNvXNtNtCsdwuhiSxlwM7_12identity_did4diff6methodNtNtNtB6_12verification6method6MethodNtNtCskxz0FW6fCEL_13identity_diff6traits4Diff9from_diffCsapfZL3txtKN_13identity_iota
FNF:4
FNH:0
DA:41,0
DA:43,0
DA:44,0
DA:46,0
DA:48,0
DA:49,0
DA:51,0
DA:53,0
DA:54,0
DA:56,0
DA:58,0
DA:59,0
DA:61,0
DA:63,0
DA:64,0
DA:66,0
DA:69,0
DA:71,0
DA:72,0
DA:73,0
DA:74,0
DA:75,0
DA:76,0
DA:78,0
DA:79,0
DA:80,0
DA:81,0
DA:82,0
DA:84,0
DA:85,0
DA:86,0
DA:87,0
DA:88,0
DA:90,0
DA:91,0
DA:92,0
DA:93,0
DA:94,0
DA:96,0
DA:97,0
DA:98,0
DA:99,0
DA:100,0
DA:102,0
DA:103,0
DA:104,0
DA:105,0
DA:106,0
DA:107,0
DA:108,0
DA:109,0
DA:111,0
DA:112,0
DA:113,0
DA:114,0
DA:115,0
DA:116,0
DA:118,0
DA:119,0
DA:120,0
DA:121,0
DA:122,0
DA:124,0
DA:125,0
DA:126,0
DA:127,0
DA:128,0
DA:130,0
DA:131,0
DA:132,0
DA:133,0
DA:134,0
DA:136,0
DA:137,0
DA:138,0
DA:139,0
DA:140,0
DA:142,0
DA:143,0
DA:144,0
DA:145,0
DA:146,0
DA:147,0
DA:148,0
DA:149,0
DA:151,0
DA:153,0
DA:154,0
DA:155,0
DA:156,0
DA:157,0
DA:159,0
BRF:0
BFH:0
LF:92
LH:0
end_of_record
SF:identity-did/src/diff/method_data.rs
FN:11,_RNvXNtNtCsdwuhiSxlwM7_12identity_did4diff11method_dataNtNtNtB6_12verification11method_data10MethodDataNtNtCskxz0FW6fCEL_13identity_diff6traits4Diff5merge
FN:58,_RNvXNtNtCsdwuhiSxlwM7_12identity_did4diff11method_dataNtNtNtB6_12verification11method_data10MethodDataNtNtCskxz0FW6fCEL_13identity_diff6traits4Diff9into_diff
FNDA:0,_RNvXNtNtCsdwuhiSxlwM7_12identity_did4diff11method_dataNtNtNtB6_12verification11method_data10MethodDataNtNtCskxz0FW6fCEL_13identity_diff6traits4Diff5merge
FNDA:0,_RNvXNtNtCsdwuhiSxlwM7_12identity_did4diff11method_dataNtNtNtB6_12verification11method_data10MethodDataNtNtCskxz0FW6fCEL_13identity_diff6traits4Diff9into_diff
FNF:2
FNH:0
DA:11,0
DA:33,0
DA:34,0
DA:35,0
DA:36,0
DA:38,0
DA:39,0
DA:40,0
DA:41,0
DA:42,0
DA:43,0
DA:45,0
DA:58,0
DA:59,0
DA:60,0
DA:61,0
DA:62,0
DA:64,0
BRF:0
BFH:0
LF:18
LH:0
end_of_record
SF:identity-did/src/diff/method_ref.rs
FN:60,_RNvXNtNtCsdwuhiSxlwM7_12identity_did4diff10method_refNtNtNtB6_12verification10method_ref9MethodRefNtNtCskxz0FW6fCEL_13identity_diff6traits4Diff9into_diffCsapfZL3txtKN_13identity_iota
FNDA:0,_RNvXNtNtCsdwuhiSxlwM7_12identity_did4diff10method_refNtNtNtB6_12verification10method_ref9MethodRefNtNtCskxz0FW6fCEL_13identity_diff6traits4Diff9into_diffCsapfZL3txtKN_13identity_iota
FNF:1
FNH:0
DA:60,0
DA:61,0
DA:62,0
DA:63,0
DA:65,0
BRF:0
BFH:0
LF:5
LH:0
end_of_record
SF:identity-did/src/diff/ordered_set.rs
FN:24,_RNvXNtNtCsdwuhiSxlwM7_12identity_did4diff11ordered_setINtNtNtB6_5utils11ordered_set10OrderedSetINtNtBV_7did_key6DIDKeyNtNtNtB6_7service7service7ServiceEENtNtCskxz0FW6fCEL_13identity_diff6traits4Diff5mergeCsapfZL3txtKN_13identity_iota
FN:24,_RNvXNtNtCsdwuhiSxlwM7_12identity_did4diff11ordered_setINtNtNtB6_5utils11ordered_set10OrderedSetINtNtBV_7did_key6DIDKeyNtNtNtB6_12verification6method6MethodEENtNtCskxz0FW6fCEL_13identity_diff6traits4Diff5mergeCsapfZL3txtKN_13identity_iota
FN:24,_RNvXNtNtCsdwuhiSxlwM7_12identity_did4diff11ordered_setINtNtNtB6_5utils11ordered_set10OrderedSetINtNtBV_7did_key6DIDKeyNtNtNtB6_12verification10method_ref9MethodRefEENtNtCskxz0FW6fCEL_13identity_diff6traits4Diff5mergeCsapfZL3txtKN_13identity_iota
FNDA:0,_RNvXNtNtCsdwuhiSxlwM7_12identity_did4diff11ordered_setINtNtNtB6_5utils11ordered_set10OrderedSetINtNtBV_7did_key6DIDKeyNtNtNtB6_7service7service7ServiceEENtNtCskxz0FW6fCEL_13identity_diff6traits4Diff5mergeCsapfZL3txtKN_13identity_iota
FNDA:0,_RNvXNtNtCsdwuhiSxlwM7_12identity_did4diff11ordered_setINtNtNtB6_5utils11ordered_set10OrderedSetINtNtBV_7did_key6DIDKeyNtNtNtB6_12verification6method6MethodEENtNtCskxz0FW6fCEL_13identity_diff6traits4Diff5mergeCsapfZL3txtKN_13identity_iota
FNDA:0,_RNvXNtNtCsdwuhiSxlwM7_12identity_did4diff11ordered_setINtNtNtB6_5utils11ordered_set10OrderedSetINtNtBV_7did_key6DIDKeyNtNtNtB6_12verification10method_ref9MethodRefEENtNtCskxz0FW6fCEL_13identity_diff6traits4Diff5mergeCsapfZL3txtKN_13identity_iota
FNF:1
FNH:0
DA:24,0
DA:25,0
DA:26,0
DA:27,0
DA:28,0
DA:29,0
DA:30,0
BRF:0
BFH:0
LF:7
LH:0
end_of_record
SF:identity-did/src/diff/service.rs
FN:128,_RNvXNtNtCsdwuhiSxlwM7_12identity_did4diff7serviceNtNtNtB6_7service7service7ServiceNtNtCskxz0FW6fCEL_13identity_diff6traits4Diff9into_diffCsapfZL3txtKN_13identity_iota
FN:62,_RNvXNtNtCsdwuhiSxlwM7_12identity_did4diff7serviceNtNtNtB6_7service7service7ServiceNtNtCskxz0FW6fCEL_13identity_diff6traits4Diff5mergeCsapfZL3txtKN_13identity_iota
FN:95,_RNvXNtNtCsdwuhiSxlwM7_12identity_did4diff7serviceNtNtNtB6_7service7service7ServiceNtNtCskxz0FW6fCEL_13identity_diff6traits4Diff9from_diffCsapfZL3txtKN_13identity_iota
FN:37,_RNvXNtNtCsdwuhiSxlwM7_12identity_did4diff7serviceNtNtNtB6_7service7service7ServiceNtNtCskxz0FW6fCEL_13identity_diff6traits4Diff4diffCsapfZL3txtKN_13identity_iota
FNDA:0,_RNvXNtNtCsdwuhiSxlwM7_12identity_did4diff7serviceNtNtNtB6_7service7service7ServiceNtNtCskxz0FW6fCEL_13identity_diff6traits4Diff9into_diffCsapfZL3txtKN_13identity_iota
FNDA:0,_RNvXNtNtCsdwuhiSxlwM7_12identity_did4diff7serviceNtNtNtB6_7service7service7ServiceNtNtCskxz0FW6fCEL_13identity_diff6traits4Diff5mergeCsapfZL3txtKN_13identity_iota
FNDA:0,_RNvXNtNtCsdwuhiSxlwM7_12identity_did4diff7serviceNtNtNtB6_7service7service7ServiceNtNtCskxz0FW6fCEL_13identity_diff6traits4Diff9from_diffCsapfZL3txtKN_13identity_iota
FNDA:0,_RNvXNtNtCsdwuhiSxlwM7_12identity_did4diff7serviceNtNtNtB6_7service7service7ServiceNtNtCskxz0FW6fCEL_13identity_diff6traits4Diff4diffCsapfZL3txtKN_13identity_iota
FNF:4
FNH:0
DA:37,0
DA:39,0
DA:40,0
DA:42,0
DA:44,0
DA:45,0
DA:47,0
DA:49,0
DA:50,0
DA:52,0
DA:54,0
DA:55,0
DA:57,0
DA:60,0
DA:62,0
DA:63,0
DA:64,0
DA:65,0
DA:66,0
DA:69,0
DA:70,0
DA:71,0
DA:72,0
DA:75,0
DA:76,0
DA:77,0
DA:78,0
DA:79,0
DA:81,0
DA:82,0
DA:83,0
DA:84,0
DA:85,0
DA:87,0
DA:88,0
DA:89,0
DA:90,0
DA:91,0
DA:92,0
DA:93,0
DA:95,0
DA:96,0
DA:97,0
DA:98,0
DA:99,0
DA:100,0
DA:102,0
DA:103,0
DA:104,0
DA:105,0
DA:106,0
DA:108,0
DA:109,0
DA:110,0
DA:111,0
DA:112,0
DA:114,0
DA:115,0
DA:116,0
DA:117,0
DA:118,0
DA:120,0
DA:121,0
DA:122,0
DA:123,0
DA:124,0
DA:125,0
DA:126,0
DA:128,0
DA:130,0
DA:131,0
DA:132,0
DA:133,0
DA:135,0
BRF:0
BFH:0
LF:74
LH:0
end_of_record
SF:identity-did/src/document/document.rs
FN:256,_RNvMNtNtCs3sQMjYUjz43_12identity_did8document8documentNtB2_8Document7methodsB6_
FN:62,_RNvMNtNtCs3sQMjYUjz43_12identity_did8document8documentNtB2_8Document12from_builderB6_
FN:327,_RNvMNtNtCs3sQMjYUjz43_12identity_did8document8documentINtB2_8DocumentNtNtNtB6_10verifiable10properties10PropertiesE14resolve_methodB6_
FN:62,_RNvMNtNtCs3sQMjYUjz43_12identity_did8document8documentINtB2_8DocumentNtNtNtB6_10verifiable10properties10PropertiesE12from_builderB6_
FN:327,_RNvMNtNtCs3sQMjYUjz43_12identity_did8document8documentNtB2_8Document14resolve_methodB6_
FN:257,_RINvNvMNtNtCs3sQMjYUjz43_12identity_did8document8documentINtB5_8DocumentpppE7methods12___filter_refINtNtNtNtCslaFPCg94Pel_5alloc11collections5btree3map8BTreeMapNtNtB1I_6string6StringNtNtCs1CNeFI220rp_10serde_json5value5ValueEEB9_
FN:27,_RNvNtNtNtCs3sQMjYUjz43_12identity_did8document8document5tests6method
FN:444,_RNvNtNtNtCs3sQMjYUjz43_12identity_did8document8document5testss_32test_resolve_fragment_identifier
FN:460,_RNvNtNtNtCs3sQMjYUjz43_12identity_did8document8document5testss_29test_resolve_index_identifier
FN:470,_RNvNtNtNtCs3sQMjYUjz43_12identity_did8document8document5testss_30test_resolve_reference_missing
FN:62,_RNvMNtNtCsdwuhiSxlwM7_12identity_did8document8documentNtB2_8Document12from_builderCs9VfPsUr1MEv_19identity_credential
FN:327,_RNvMNtNtCsdwuhiSxlwM7_12identity_did8document8documentNtB2_8Document14resolve_methodCs9VfPsUr1MEv_19identity_credential
FN:357,_RNvMNtNtCsdwuhiSxlwM7_12identity_did8document8documentINtB2_8DocumentINtNtNtB6_10verifiable10properties10PropertiesNtNtNtNtCsapfZL3txtKN_13identity_iota3did3doc10properties10PropertiesEINtNtNtNtCslaFPCg94Pel_5alloc11collections5btree3map8BTreeMapNtNtB36_6string6StringNtNtCs1CNeFI220rp_10serde_json5value5ValueEuE18resolve_method_mutCskt00YjyhLiG_13identity_wasm
FN:62,_RNvMNtNtCsdwuhiSxlwM7_12identity_did8document8documentINtB2_8DocumentNtNtNtNtCsapfZL3txtKN_13identity_iota3did3doc10properties10PropertiesINtNtNtNtCslaFPCg94Pel_5alloc11collections5btree3map8BTreeMapNtNtB2l_6string6StringNtNtCs1CNeFI220rp_10serde_json5value5ValueEuE12from_builderB1d_
FN:327,_RNvMNtNtCsdwuhiSxlwM7_12identity_did8document8documentINtB2_8DocumentINtNtNtB6_10verifiable10properties10PropertiesNtNtNtNtCsapfZL3txtKN_13identity_iota3did3doc10properties10PropertiesEINtNtNtNtCslaFPCg94Pel_5alloc11collections5btree3map8BTreeMapNtNtB36_6string6StringNtNtCs1CNeFI220rp_10serde_json5value5ValueEuE14resolve_methodB1X_
FN:320,_RNvMNtNtCsdwuhiSxlwM7_12identity_did8document8documentNtB2_8Document11resolve_refCsapfZL3txtKN_13identity_iota
FN:394,_RNvXs_NtNtCsdwuhiSxlwM7_12identity_did8document8documentINtB4_8DocumentINtNtNtB8_10verifiable10properties10PropertiesNtNtNtNtCsapfZL3txtKN_13identity_iota3did3doc10properties10PropertiesEINtNtNtNtCslaFPCg94Pel_5alloc11collections5btree3map8BTreeMapNtNtB38_6string6StringNtNtCs1CNeFI220rp_10serde_json5value5ValueEuENtNtCs4RZURTQcbNt_4core3fmt7Display3fmtB1Z_
FN:320,_RNvMNtNtCsdwuhiSxlwM7_12identity_did8document8documentINtB2_8DocumentINtNtNtB6_10verifiable10properties10PropertiesNtNtNtNtCsapfZL3txtKN_13identity_iota3did3doc10properties10PropertiesEINtNtNtNtCslaFPCg94Pel_5alloc11collections5btree3map8BTreeMapNtNtB36_6string6StringNtNtCs1CNeFI220rp_10serde_json5value5ValueEuE11resolve_refB1X_
FN:234,_RNvMNtNtCsdwuhiSxlwM7_12identity_did8document8documentINtB2_8DocumentINtNtNtB6_10verifiable10properties10PropertiesNtNtNtNtCsapfZL3txtKN_13identity_iota3did3doc10properties10PropertiesEINtNtNtNtCslaFPCg94Pel_5alloc11collections5btree3map8BTreeMapNtNtB36_6string6StringNtNtCs1CNeFI220rp_10serde_json5value5ValueEuE13insert_methodB1X_
FNDA:0,_RNvMNtNtCs3sQMjYUjz43_12identity_did8document8documentNtB2_8Document7methodsB6_
FNDA:0,_RNvMNtNtCs3sQMjYUjz43_12identity_did8document8documentNtB2_8Document12from_builderB6_
FNDA:0,_RNvMNtNtCs3sQMjYUjz43_12identity_did8document8documentINtB2_8DocumentNtNtNtB6_10verifiable10properties10PropertiesE14resolve_methodB6_
FNDA:0,_RNvMNtNtCs3sQMjYUjz43_12identity_did8document8documentINtB2_8DocumentNtNtNtB6_10verifiable10properties10PropertiesE12from_builderB6_
FNDA:0,_RNvMNtNtCs3sQMjYUjz43_12identity_did8document8documentNtB2_8Document14resolve_methodB6_
FNDA:0,_RINvNvMNtNtCs3sQMjYUjz43_12identity_did8document8documentINtB5_8DocumentpppE7methods12___filter_refINtNtNtNtCslaFPCg94Pel_5alloc11collections5btree3map8BTreeMapNtNtB1I_6string6StringNtNtCs1CNeFI220rp_10serde_json5value5ValueEEB9_
FNDA:0,_RNvNtNtNtCs3sQMjYUjz43_12identity_did8document8document5tests6method
FNDA:0,_RNvNtNtNtCs3sQMjYUjz43_12identity_did8document8document5testss_32test_resolve_fragment_identifier
FNDA:0,_RNvNtNtNtCs3sQMjYUjz43_12identity_did8document8document5testss_29test_resolve_index_identifier
FNDA:0,_RNvNtNtNtCs3sQMjYUjz43_12identity_did8document8document5testss_30test_resolve_reference_missing
FNDA:0,_RNvMNtNtCsdwuhiSxlwM7_12identity_did8document8documentNtB2_8Document12from_builderCs9VfPsUr1MEv_19identity_credential
FNDA:0,_RNvMNtNtCsdwuhiSxlwM7_12identity_did8document8documentNtB2_8Document14resolve_methodCs9VfPsUr1MEv_19identity_credential
FNDA:0,_RNvMNtNtCsdwuhiSxlwM7_12identity_did8document8documentINtB2_8DocumentINtNtNtB6_10verifiable10properties10PropertiesNtNtNtNtCsapfZL3txtKN_13identity_iota3did3doc10properties10PropertiesEINtNtNtNtCslaFPCg94Pel_5alloc11collections5btree3map8BTreeMapNtNtB36_6string6StringNtNtCs1CNeFI220rp_10serde_json5value5ValueEuE18resolve_method_mutCskt00YjyhLiG_13identity_wasm
FNDA:0,_RNvMNtNtCsdwuhiSxlwM7_12identity_did8document8documentINtB2_8DocumentNtNtNtNtCsapfZL3txtKN_13identity_iota3did3doc10properties10PropertiesINtNtNtNtCslaFPCg94Pel_5alloc11collections5btree3map8BTreeMapNtNtB2l_6string6StringNtNtCs1CNeFI220rp_10serde_json5value5ValueEuE12from_builderB1d_
FNDA:0,_RNvMNtNtCsdwuhiSxlwM7_12identity_did8document8documentINtB2_8DocumentINtNtNtB6_10verifiable10properties10PropertiesNtNtNtNtCsapfZL3txtKN_13identity_iota3did3doc10properties10PropertiesEINtNtNtNtCslaFPCg94Pel_5alloc11collections5btree3map8BTreeMapNtNtB36_6string6StringNtNtCs1CNeFI220rp_10serde_json5value5ValueEuE14resolve_methodB1X_
FNDA:0,_RNvMNtNtCsdwuhiSxlwM7_12identity_did8document8documentNtB2_8Document11resolve_refCsapfZL3txtKN_13identity_iota
FNDA:0,_RNvXs_NtNtCsdwuhiSxlwM7_12identity_did8document8documentINtB4_8DocumentINtNtNtB8_10verifiable10properties10PropertiesNtNtNtNtCsapfZL3txtKN_13identity_iota3did3doc10properties10PropertiesEINtNtNtNtCslaFPCg94Pel_5alloc11collections5btree3map8BTreeMapNtNtB38_6string6StringNtNtCs1CNeFI220rp_10serde_json5value5ValueEuENtNtCs4RZURTQcbNt_4core3fmt7Display3fmtB1Z_
FNDA:0,_RNvMNtNtCsdwuhiSxlwM7_12identity_did8document8documentINtB2_8DocumentINtNtNtB6_10verifiable10properties10PropertiesNtNtNtNtCsapfZL3txtKN_13identity_iota3did3doc10properties10PropertiesEINtNtNtNtCslaFPCg94Pel_5alloc11collections5btree3map8BTreeMapNtNtB36_6string6StringNtNtCs1CNeFI220rp_10serde_json5value5ValueEuE11resolve_refB1X_
FNDA:0,_RNvMNtNtCsdwuhiSxlwM7_12identity_did8document8documentINtB2_8DocumentINtNtNtB6_10verifiable10properties10PropertiesNtNtNtNtCsapfZL3txtKN_13identity_iota3did3doc10properties10PropertiesEINtNtNtNtCslaFPCg94Pel_5alloc11collections5btree3map8BTreeMapNtNtB36_6string6StringNtNtCs1CNeFI220rp_10serde_json5value5ValueEuE13insert_methodB1X_
FNF:12
FNH:0
DA:27,0
DA:62,0
DA:64,0
DA:65,0
DA:66,0
DA:67,0
DA:68,0
DA:69,0
DA:70,0
DA:71,0
DA:72,0
DA:73,0
DA:74,0
DA:76,0
DA:79,0
DA:80,0
DA:81,0
DA:84,0
DA:85,0
DA:86,0
DA:89,0
DA:90,0
DA:91,0
DA:94,0
DA:95,0
DA:96,0
DA:99,0
DA:100,0
DA:101,0
DA:104,0
DA:105,0
DA:106,0
DA:109,0
DA:110,0
DA:111,0
DA:114,0
DA:115,0
DA:116,0
DA:119,0
DA:120,0
DA:121,0
DA:124,0
DA:125,0
DA:126,0
DA:129,0
DA:130,0
DA:131,0
DA:134,0
DA:135,0
DA:136,0
DA:139,0
DA:140,0
DA:141,0
DA:144,0
DA:145,0
DA:146,0
DA:149,0
DA:150,0
DA:151,0
DA:154,0
DA:155,0
DA:156,0
DA:159,0
DA:160,0
DA:161,0
DA:164,0
DA:165,0
DA:166,0
DA:169,0
DA:170,0
DA:171,0
DA:174,0
DA:175,0
DA:176,0
DA:190,0
DA:191,0
DA:192,0
DA:193,0
DA:194,0
DA:195,0
DA:196,0
DA:197,0
DA:198,0
DA:199,0
DA:200,0
DA:201,0
DA:202,0
DA:203,0
DA:204,0
DA:205,0
DA:206,0
DA:207,0
DA:214,0
DA:215,0
DA:216,0
DA:217,0
DA:219,0
DA:220,0
DA:221,0
DA:222,0
DA:223,0
DA:224,0
DA:225,0
DA:226,0
DA:227,0
DA:228,0
DA:229,0
DA:231,0
DA:234,0
DA:235,0
DA:236,0
DA:237,0
DA:238,0
DA:239,0
DA:240,0
DA:241,0
DA:243,0
DA:246,0
DA:247,0
DA:248,0
DA:249,0
DA:250,0
DA:251,0
DA:252,0
DA:253,0
DA:256,0
DA:257,0
DA:258,0
DA:259,0
DA:260,0
DA:261,0
DA:262,0
DA:263,0
DA:264,0
DA:265,0
DA:266,0
DA:267,0
DA:268,0
DA:269,0
DA:270,0
DA:271,0
DA:272,0
DA:273,0
DA:299,0
DA:300,0
DA:301,0
DA:302,0
DA:303,0
DA:304,0
DA:312,0
DA:313,0
DA:314,0
DA:315,0
DA:316,0
DA:317,0
DA:320,0
DA:321,0
DA:322,0
DA:323,0
DA:325,0
DA:327,0
DA:328,0
DA:329,0
DA:330,0
DA:331,0
DA:332,0
DA:334,0
DA:335,0
DA:336,0
DA:338,0
DA:339,0
DA:340,0
DA:342,0
DA:343,0
DA:344,0
DA:346,0
DA:347,0
DA:348,0
DA:350,0
DA:351,0
DA:352,0
DA:353,0
DA:355,0
DA:357,0
DA:358,0
DA:359,0
DA:360,0
DA:361,0
DA:362,0
DA:364,0
DA:365,0
DA:366,0
DA:368,0
DA:369,0
DA:370,0
DA:372,0
DA:373,0
DA:374,0
DA:376,0
DA:377,0
DA:378,0
DA:380,0
DA:381,0
DA:382,0
DA:383,0
DA:385,0
DA:394,0
DA:395,0
DA:396,0
DA:398,0
DA:400,0
DA:417,0
DA:418,0
DA:419,0
DA:420,0
DA:421,0
DA:422,0
DA:423,0
DA:424,0
DA:425,0
DA:444,0
DA:445,0
DA:448,0
DA:449,0
DA:450,0
DA:453,0
DA:454,0
DA:455,0
DA:456,0
DA:460,0
DA:461,0
DA:464,0
DA:465,0
DA:466,0
DA:470,0
DA:471,0
DA:474,0
DA:475,0
BRF:0
BFH:0
LF:285
LH:0
end_of_record
SF:identity-did/src/resolution/dereference.rs
FN:11,_RNvXs0_NvXNvNtNtCsdwuhiSxlwM7_12identity_did10resolution11dereferences_1__NtBa_11DereferenceNtNtCsbmAr7Tf4vl1_5serde2de11Deserialize11deserializeNtB5_9___VisitorNtB1u_7Visitor9expecting
FNDA:0,_RNvXs0_NvXNvNtNtCsdwuhiSxlwM7_12identity_did10resolution11dereferences_1__NtBa_11DereferenceNtNtCsbmAr7Tf4vl1_5serde2de11Deserialize11deserializeNtB5_9___VisitorNtB1u_7Visitor9expecting
FNF:1
FNH:0
DA:11,0
BRF:0
BFH:0
LF:1
LH:0
end_of_record
SF:identity-did/src/resolution/document_metadata.rs
FN:8,_RNvXs2_NtNtCsdwuhiSxlwM7_12identity_did10resolution17document_metadataNtB5_16DocumentMetadataNtNtCs4RZURTQcbNt_4core3fmt5Debug3fmt
FNDA:0,_RNvXs2_NtNtCsdwuhiSxlwM7_12identity_did10resolution17document_metadataNtB5_16DocumentMetadataNtNtCs4RZURTQcbNt_4core3fmt5Debug3fmt
FNF:1
FNH:0
DA:8,0
BRF:0
BFH:0
LF:1
LH:0
end_of_record
SF:identity-did/src/resolution/error_kind.rs
FN:7,_RNvXNvXNvNtNtCsdwuhiSxlwM7_12identity_did10resolution10error_kinds_1__NtB7_9ErrorKindNtNtCsbmAr7Tf4vl1_5serde2de11Deserialize11deserializeNtB2_14___FieldVisitorNtB1n_7Visitor9expecting
FNDA:0,_RNvXNvXNvNtNtCsdwuhiSxlwM7_12identity_did10resolution10error_kinds_1__NtB7_9ErrorKindNtNtCsbmAr7Tf4vl1_5serde2de11Deserialize11deserializeNtB2_14___FieldVisitorNtB1n_7Visitor9expecting
FNF:1
FNH:0
DA:7,0
BRF:0
BFH:0
LF:1
LH:0
end_of_record
SF:identity-did/src/resolution/impls.rs
FN:243,_RINvNvNtNtCsdwuhiSxlwM7_12identity_did10resolution5impls20dereference_document11dereferenceNtNtNtB8_12verification10method_ref9MethodRefEB8_
FN:243,_RINvNvNtNtCsdwuhiSxlwM7_12identity_did10resolution5impls20dereference_document11dereferenceNtNtNtB8_12verification6method6MethodEB8_
FN:243,_RINvNvNtNtCsdwuhiSxlwM7_12identity_did10resolution5impls20dereference_document11dereferenceNtNtNtB8_7service7service7ServiceEB8_
FN:29,_RNvMNtNtCsdwuhiSxlwM7_12identity_did10resolution5implsNtB2_14ResolveContext12finish_error
FN:241,_RNvNtNtCsdwuhiSxlwM7_12identity_did10resolution5impls20dereference_document
FN:294,_RNvNtNtCsdwuhiSxlwM7_12identity_did10resolution5impls21service_endpoint_ctor
FN:211,_RNvNtNtCsdwuhiSxlwM7_12identity_did10resolution5impls19dereference_primary
FNDA:0,_RINvNvNtNtCsdwuhiSxlwM7_12identity_did10resolution5impls20dereference_document11dereferenceNtNtNtB8_12verification10method_ref9MethodRefEB8_
FNDA:0,_RINvNvNtNtCsdwuhiSxlwM7_12identity_did10resolution5impls20dereference_document11dereferenceNtNtNtB8_12verification6method6MethodEB8_
FNDA:0,_RINvNvNtNtCsdwuhiSxlwM7_12identity_did10resolution5impls20dereference_document11dereferenceNtNtNtB8_7service7service7ServiceEB8_
FNDA:0,_RNvMNtNtCsdwuhiSxlwM7_12identity_did10resolution5implsNtB2_14ResolveContext12finish_error
FNDA:0,_RNvNtNtCsdwuhiSxlwM7_12identity_did10resolution5impls20dereference_document
FNDA:0,_RNvNtNtCsdwuhiSxlwM7_12identity_did10resolution5impls21service_endpoint_ctor
FNDA:0,_RNvNtNtCsdwuhiSxlwM7_12identity_did10resolution5impls19dereference_primary
FNF:5
FNH:0
DA:29,0
DA:30,0
DA:31,0
DA:32,0
DA:33,0
DA:36,0
DA:37,0
DA:38,0
DA:43,0
DA:44,0
DA:45,0
DA:49,0
DA:50,0
DA:51,0
DA:63,0
DA:64,0
DA:65,0
DA:66,0
DA:67,0
DA:68,0
DA:75,0
DA:76,0
DA:77,0
DA:78,0
DA:79,0
DA:80,0
DA:84,0
DA:87,0
DA:88,0
DA:89,0
DA:93,0
DA:94,0
DA:95,0
DA:96,0
DA:97,0
DA:102,0
DA:105,0
DA:108,0
DA:109,0
DA:110,0
DA:115,0
DA:119,0
DA:121,0
DA:124,0
DA:125,0
DA:126,0
DA:127,0
DA:130,0
DA:131,0
DA:132,0
DA:133,0
DA:134,0
DA:135,0
DA:136,0
DA:138,0
DA:139,0
DA:140,0
DA:142,0
DA:143,0
DA:169,0
DA:170,0
DA:171,0
DA:172,0
DA:188,0
DA:189,0
DA:190,0
DA:211,0
DA:213,0
DA:216,0
DA:220,0
DA:221,0
DA:222,0
DA:223,0
DA:224,0
DA:225,0
DA:226,0
DA:227,0
DA:233,0
DA:235,0
DA:237,0
DA:239,0
DA:241,0
DA:242,0
DA:243,0
DA:244,0
DA:245,0
DA:246,0
DA:247,0
DA:248,0
DA:249,0
DA:250,0
DA:251,0
DA:252,0
DA:253,0
DA:254,0
DA:255,0
DA:256,0
DA:257,0
DA:258,0
DA:260,0
DA:261,0
DA:262,0
DA:264,0
DA:265,0
DA:266,0
DA:268,0
DA:269,0
DA:270,0
DA:272,0
DA:273,0
DA:274,0
DA:276,0
DA:277,0
DA:278,0
DA:280,0
DA:281,0
DA:282,0
DA:284,0
DA:285,0
DA:286,0
DA:287,0
DA:288,0
DA:289,0
DA:294,0
DA:297,0
DA:298,0
DA:299,0
DA:303,0
DA:304,0
DA:305,0
DA:306,0
DA:307,0
DA:308,0
DA:309,0
DA:310,0
DA:311,0
DA:312,0
DA:313,0
DA:314,0
DA:315,0
DA:316,0
DA:317,0
DA:318,0
DA:319,0
DA:320,0
DA:323,0
DA:324,0
DA:325,0
DA:329,0
DA:330,0
DA:331,0
DA:332,0
DA:333,0
DA:334,0
DA:335,0
DA:336,0
DA:337,0
DA:338,0
DA:339,0
DA:340,0
DA:341,0
DA:342,0
DA:343,0
DA:344,0
DA:345,0
DA:346,0
DA:347,0
DA:354,0
DA:355,0
DA:356,0
DA:357,0
DA:361,0
DA:362,0
BRF:0
BFH:0
LF:184
LH:0
end_of_record
SF:identity-did/src/resolution/resolution.rs
FN:11,_RNvXNvXNvNtNtCsdwuhiSxlwM7_12identity_did10resolution10resolutions_1__NtB7_10ResolutionNtNtCsbmAr7Tf4vl1_5serde2de11Deserialize11deserializeNtB2_14___FieldVisitorNtB1p_7Visitor9expecting
FNDA:0,_RNvXNvXNvNtNtCsdwuhiSxlwM7_12identity_did10resolution10resolutions_1__NtB7_10ResolutionNtNtCsbmAr7Tf4vl1_5serde2de11Deserialize11deserializeNtB2_14___FieldVisitorNtB1p_7Visitor9expecting
FNF:1
FNH:0
DA:11,0
BRF:0
BFH:0
LF:1
LH:0
end_of_record
SF:identity-did/src/resolution/resolution_metadata.rs
FN:13,_RNvXs2_NtNtCsdwuhiSxlwM7_12identity_did10resolution19resolution_metadataNtB5_18ResolutionMetadataNtNtCs4RZURTQcbNt_4core3fmt5Debug3fmt
FNDA:0,_RNvXs2_NtNtCsdwuhiSxlwM7_12identity_did10resolution19resolution_metadataNtB5_18ResolutionMetadataNtNtCs4RZURTQcbNt_4core3fmt5Debug3fmt
FNF:1
FNH:0
DA:13,0
BRF:0
BFH:0
LF:1
LH:0
end_of_record
SF:identity-did/src/resolution/resource.rs
FN:16,_RNvXs0_NvXNvNtNtCsdwuhiSxlwM7_12identity_did10resolution8resources_1__NtBa_8ResourceNtNtCsbmAr7Tf4vl1_5serde2de11Deserialize11deserializeNtB5_9___VisitorNtB1m_7Visitor9expecting
FN:88,_RNvXs4_NtNtCsdwuhiSxlwM7_12identity_did10resolution8resourceNtB5_17SecondaryResourceINtNtCs4RZURTQcbNt_4core7convert4FromNtNtNtB9_12verification10method_ref9MethodRefE4from
FNDA:0,_RNvXs0_NvXNvNtNtCsdwuhiSxlwM7_12identity_did10resolution8resources_1__NtBa_8ResourceNtNtCsbmAr7Tf4vl1_5serde2de11Deserialize11deserializeNtB5_9___VisitorNtB1m_7Visitor9expecting
FNDA:0,_RNvXs4_NtNtCsdwuhiSxlwM7_12identity_did10resolution8resourceNtB5_17SecondaryResourceINtNtCs4RZURTQcbNt_4core7convert4FromNtNtNtB9_12verification10method_ref9MethodRefE4from
FNF:2
FNH:0
DA:16,0
DA:39,0
DA:64,0
DA:88,0
DA:89,0
DA:90,0
DA:91,0
DA:93,0
BRF:0
BFH:0
LF:8
LH:0
end_of_record
SF:identity-did/src/service/service.rs
FN:39,_RNvMNtNtCs3sQMjYUjz43_12identity_did7service7serviceNtB2_7Service12from_builderB6_
FNDA:0,_RNvMNtNtCs3sQMjYUjz43_12identity_did7service7serviceNtB2_7Service12from_builderB6_
FNF:1
FNH:0
DA:39,0
DA:41,0
DA:42,0
DA:43,0
DA:44,0
DA:46,0
BRF:0
BFH:0
LF:6
LH:0
end_of_record
SF:identity-did/src/utils/ordered_set.rs
FN:112,_RNvMNtNtCs3sQMjYUjz43_12identity_did5utils11ordered_setINtB2_10OrderedSetReE6appendB6_
FN:239,_RNvXs3_NtNtCs3sQMjYUjz43_12identity_did5utils11ordered_setINtB5_10OrderedSetINtNtB7_7did_key6DIDKeyNtNtNtB9_12verification6method6MethodEEINtNtCs4RZURTQcbNt_4core7convert7TryFromINtNtCslaFPCg94Pel_5alloc3vec3VecB1c_EE8try_fromB9_
FN:102,_RINvMNtNtCs3sQMjYUjz43_12identity_did5utils11ordered_setINtB3_10OrderedSetINtNtB5_7did_key6DIDKeyNtNtNtB7_12verification10method_ref9MethodRefEE8containsB1x_EB7_
FN:169,_RINvMNtNtCs3sQMjYUjz43_12identity_did5utils11ordered_setINtB3_10OrderedSetReE6changeNCINvB2_7replaceB1a_E0EB7_
FN:112,_RNvMNtNtCs3sQMjYUjz43_12identity_did5utils11ordered_setINtB2_10OrderedSethE6appendB6_
FN:216,_RINvXs2_NtNtCs3sQMjYUjz43_12identity_did5utils11ordered_setINtB6_10OrderedSetINtNtB8_7did_key6DIDKeyNtNtNtBa_12verification10method_ref9MethodRefEEINtNtNtNtCs4RZURTQcbNt_4core4iter6traits7collect12FromIteratorB1d_E9from_iterINtNtNtCslaFPCg94Pel_5alloc3vec9into_iter8IntoIterB1d_EEBa_
FN:126,_RNvMNtNtCs3sQMjYUjz43_12identity_did5utils11ordered_setINtB2_10OrderedSetReE7prependB6_
FN:216,_RINvXs2_NtNtCs3sQMjYUjz43_12identity_did5utils11ordered_setINtB6_10OrderedSethEINtNtNtNtCs4RZURTQcbNt_4core4iter6traits7collect12FromIteratorhE9from_iterINtNtNtCslaFPCg94Pel_5alloc3vec9into_iter8IntoIterhEEBa_
FN:112,_RNvMNtNtCs3sQMjYUjz43_12identity_did5utils11ordered_setINtB2_10OrderedSetINtNtB4_7did_key6DIDKeyNtNtNtB6_12verification6method6MethodEE6appendB6_
FN:239,_RNvXs3_NtNtCs3sQMjYUjz43_12identity_did5utils11ordered_setINtB5_10OrderedSetINtNtB7_7did_key6DIDKeyNtNtNtB9_7service7service7ServiceEEINtNtCs4RZURTQcbNt_4core7convert7TryFromINtNtCslaFPCg94Pel_5alloc3vec3VecB1c_EE8try_fromB9_
FN:239,_RNvXs3_NtNtCs3sQMjYUjz43_12identity_did5utils11ordered_setINtB5_10OrderedSetINtNtB7_7did_key6DIDKeyNtNtNtB9_12verification10method_ref9MethodRefEEINtNtCs4RZURTQcbNt_4core7convert7TryFromINtNtCslaFPCg94Pel_5alloc3vec3VecB1c_EE8try_fromB9_
FN:256,_RINvMs4_NtNtCs3sQMjYUjz43_12identity_did5utils11ordered_setINtB6_10OrderedSetINtNtB8_7did_key6DIDKeyNtNtNtBa_12verification6method6MethodEE5queryReEBa_
FN:112,_RNvMNtNtCs3sQMjYUjz43_12identity_did5utils11ordered_setINtB2_10OrderedSetINtNtB4_7did_key6DIDKeyNtNtNtB6_7service7service7ServiceEE6appendB6_
FN:256,_RINvMs4_NtNtCs3sQMjYUjz43_12identity_did5utils11ordered_setINtB6_10OrderedSetINtNtB8_7did_key6DIDKeyNtNtNtBa_12verification10method_ref9MethodRefEE5queryNtNtB1E_12method_query11MethodQueryEBa_
FN:256,_RINvMs4_NtNtCs3sQMjYUjz43_12identity_did5utils11ordered_setINtB6_10OrderedSetINtNtB8_7did_key6DIDKeyNtNtNtBa_12verification6method6MethodEE5queryNtNtB1E_12method_query11MethodQueryEBa_
FN:112,_RNvMNtNtCs3sQMjYUjz43_12identity_did5utils11ordered_setINtB2_10OrderedSetINtNtB4_7did_key6DIDKeyNtNtNtB6_12verification10method_ref9MethodRefEE6appendB6_
FN:141,_RINvMNtNtCs3sQMjYUjz43_12identity_did5utils11ordered_setINtB3_10OrderedSetReE7replaceB1a_EB7_
FN:239,_RNvXs3_NtNtCs3sQMjYUjz43_12identity_did5utils11ordered_setINtB5_10OrderedSethEINtNtCs4RZURTQcbNt_4core7convert7TryFromINtNtCslaFPCg94Pel_5alloc3vec3VechEE8try_fromB9_
FN:21,_RNvNtNtNtCs3sQMjYUjz43_12identity_did5utils11ordered_set5testss_10test_works
FN:338,_RNvNtNtNtCs3sQMjYUjz43_12identity_did5utils11ordered_set5testss_12test_collect
FN:346,_RNvNtNtNtCs3sQMjYUjz43_12identity_did5utils11ordered_set5testss_13test_contains
FN:323,_RNvNtNtNtCs3sQMjYUjz43_12identity_did5utils11ordered_set5testss_19test_from_vec_valid
FN:256,_RINvMs4_NtNtCsdwuhiSxlwM7_12identity_did5utils11ordered_setINtB6_10OrderedSetINtNtB8_7did_key6DIDKeyNtNtNtBa_12verification6method6MethodEE5queryReECs9VfPsUr1MEv_19identity_credential
FN:239,_RNvXs3_NtNtCsdwuhiSxlwM7_12identity_did5utils11ordered_setINtB5_10OrderedSetINtNtB7_7did_key6DIDKeyNtNtNtB9_12verification6method6MethodEEINtNtCs4RZURTQcbNt_4core7convert7TryFromINtNtCslaFPCg94Pel_5alloc3vec3VecB1c_EE8try_fromCs9VfPsUr1MEv_19identity_credential
FN:112,_RNvMNtNtCsdwuhiSxlwM7_12identity_did5utils11ordered_setINtB2_10OrderedSetINtNtB4_7did_key6DIDKeyNtNtNtB6_7service7service7ServiceEE6appendCs9VfPsUr1MEv_19identity_credential
FN:239,_RNvXs3_NtNtCsdwuhiSxlwM7_12identity_did5utils11ordered_setINtB5_10OrderedSetINtNtB7_7did_key6DIDKeyNtNtNtB9_7service7service7ServiceEEINtNtCs4RZURTQcbNt_4core7convert7TryFromINtNtCslaFPCg94Pel_5alloc3vec3VecB1c_EE8try_fromCs9VfPsUr1MEv_19identity_credential
FN:112,_RNvMNtNtCsdwuhiSxlwM7_12identity_did5utils11ordered_setINtB2_10OrderedSetINtNtB4_7did_key6DIDKeyNtNtNtB6_12verification10method_ref9MethodRefEE6appendCs9VfPsUr1MEv_19identity_credential
FN:256,_RINvMs4_NtNtCsdwuhiSxlwM7_12identity_did5utils11ordered_setINtB6_10OrderedSetINtNtB8_7did_key6DIDKeyNtNtNtBa_12verification10method_ref9MethodRefEE5queryNtNtB1E_12method_query11MethodQueryECs9VfPsUr1MEv_19identity_credential
FN:256,_RINvMs4_NtNtCsdwuhiSxlwM7_12identity_did5utils11ordered_setINtB6_10OrderedSetINtNtB8_7did_key6DIDKeyNtNtNtBa_12verification6method6MethodEE5queryNtNtB1E_12method_query11MethodQueryECs9VfPsUr1MEv_19identity_credential
FN:239,_RNvXs3_NtNtCsdwuhiSxlwM7_12identity_did5utils11ordered_setINtB5_10OrderedSetINtNtB7_7did_key6DIDKeyNtNtNtB9_12verification10method_ref9MethodRefEEINtNtCs4RZURTQcbNt_4core7convert7TryFromINtNtCslaFPCg94Pel_5alloc3vec3VecB1c_EE8try_fromCs9VfPsUr1MEv_19identity_credential
FN:112,_RNvMNtNtCsdwuhiSxlwM7_12identity_did5utils11ordered_setINtB2_10OrderedSetINtNtB4_7did_key6DIDKeyNtNtNtB6_12verification6method6MethodEE6appendCs9VfPsUr1MEv_19identity_credential
FN:269,_RINvMs4_NtNtCsdwuhiSxlwM7_12identity_did5utils11ordered_setINtB6_10OrderedSetINtNtB8_7did_key6DIDKeyNtNtNtBa_12verification10method_ref9MethodRefEE9query_mutNtNtB1E_12method_query11MethodQueryECskt00YjyhLiG_13identity_wasm
FN:269,_RINvMs4_NtNtCsdwuhiSxlwM7_12identity_did5utils11ordered_setINtB6_10OrderedSetINtNtB8_7did_key6DIDKeyNtNtNtBa_12verification6method6MethodEE9query_mutNtNtB1E_12method_query11MethodQueryECskt00YjyhLiG_13identity_wasm
FN:269,_RINvMs4_NtNtCsdwuhiSxlwM7_12identity_did5utils11ordered_setINtB6_10OrderedSetINtNtB8_7did_key6DIDKeyNtNtNtBa_12verification6method6MethodEE9query_mutReECskt00YjyhLiG_13identity_wasm
FN:239,_RNvXs3_NtNtCsdwuhiSxlwM7_12identity_did5utils11ordered_setINtB5_10OrderedSetINtNtB7_7did_key6DIDKeyNtNtNtB9_7service7service7ServiceEEINtNtCs4RZURTQcbNt_4core7convert7TryFromINtNtCslaFPCg94Pel_5alloc3vec3VecB1c_EE8try_fromCsapfZL3txtKN_13identity_iota
FN:239,_RNvXs3_NtNtCsdwuhiSxlwM7_12identity_did5utils11ordered_setINtB5_10OrderedSetINtNtB7_7did_key6DIDKeyNtNtNtB9_12verification10method_ref9MethodRefEEINtNtCs4RZURTQcbNt_4core7convert7TryFromINtNtCslaFPCg94Pel_5alloc3vec3VecB1c_EE8try_fromCsapfZL3txtKN_13identity_iota
FN:112,_RNvMNtNtCsdwuhiSxlwM7_12identity_did5utils11ordered_setINtB2_10OrderedSetINtNtB4_7did_key6DIDKeyNtNtNtB6_7service7service7ServiceEE6appendCsapfZL3txtKN_13identity_iota
FN:112,_RNvMNtNtCsdwuhiSxlwM7_12identity_did5utils11ordered_setINtB2_10OrderedSetINtNtB4_7did_key6DIDKeyNtNtNtB6_12verification6method6MethodEE6appendCsapfZL3txtKN_13identity_iota
FN:256,_RINvMs4_NtNtCsdwuhiSxlwM7_12identity_did5utils11ordered_setINtB6_10OrderedSetINtNtB8_7did_key6DIDKeyNtNtNtBa_12verification10method_ref9MethodRefEE5queryNtNtB1E_12method_query11MethodQueryECsapfZL3txtKN_13identity_iota
FN:239,_RNvXs3_NtNtCsdwuhiSxlwM7_12identity_did5utils11ordered_setINtB5_10OrderedSetINtNtB7_7did_key6DIDKeyINtNtNtB9_7service7service7ServiceuEEEINtNtCs4RZURTQcbNt_4core7convert7TryFromINtNtCslaFPCg94Pel_5alloc3vec3VecB1c_EE8try_fromCsapfZL3txtKN_13identity_iota
FN:256,_RINvMs4_NtNtCsdwuhiSxlwM7_12identity_did5utils11ordered_setINtB6_10OrderedSetINtNtB8_7did_key6DIDKeyNtNtNtBa_12verification6method6MethodEE5queryReECsapfZL3txtKN_13identity_iota
FN:112,_RNvMNtNtCsdwuhiSxlwM7_12identity_did5utils11ordered_setINtB2_10OrderedSetINtNtB4_7did_key6DIDKeyNtNtNtB6_12verification10method_ref9MethodRefEE6appendCsapfZL3txtKN_13identity_iota
FN:161,_RINvMNtNtCsdwuhiSxlwM7_12identity_did5utils11ordered_setINtB3_10OrderedSetINtNtB5_7did_key6DIDKeyNtNtNtB7_12verification6method6MethodEE6removeNtNtCs5K1KC9jRDOP_7did_url3did3DIDECsapfZL3txtKN_13identity_iota
FN:256,_RINvMs4_NtNtCsdwuhiSxlwM7_12identity_did5utils11ordered_setINtB6_10OrderedSetINtNtB8_7did_key6DIDKeyNtNtNtBa_12verification6method6MethodEE5queryNtNtB1E_12method_query11MethodQueryECsapfZL3txtKN_13identity_iota
FN:112,_RNvMNtNtCsdwuhiSxlwM7_12identity_did5utils11ordered_setINtB2_10OrderedSetINtNtB4_7did_key6DIDKeyINtNtNtB6_7service7service7ServiceuEEE6appendCsapfZL3txtKN_13identity_iota
FN:239,_RNvXs3_NtNtCsdwuhiSxlwM7_12identity_did5utils11ordered_setINtB5_10OrderedSetINtNtB7_7did_key6DIDKeyNtNtNtB9_12verification6method6MethodEEINtNtCs4RZURTQcbNt_4core7convert7TryFromINtNtCslaFPCg94Pel_5alloc3vec3VecB1c_EE8try_fromCsapfZL3txtKN_13identity_iota
FN:161,_RINvMNtNtCsdwuhiSxlwM7_12identity_did5utils11ordered_setINtB3_10OrderedSetINtNtB5_7did_key6DIDKeyNtNtNtB7_12verification10method_ref9MethodRefEE6removeNtNtCs5K1KC9jRDOP_7did_url3did3DIDECsapfZL3txtKN_13identity_iota
FNDA:0,_RNvMNtNtCs3sQMjYUjz43_12identity_did5utils11ordered_setINtB2_10OrderedSetReE6appendB6_
FNDA:0,_RNvXs3_NtNtCs3sQMjYUjz43_12identity_did5utils11ordered_setINtB5_10OrderedSetINtNtB7_7did_key6DIDKeyNtNtNtB9_12verification6method6MethodEEINtNtCs4RZURTQcbNt_4core7convert7TryFromINtNtCslaFPCg94Pel_5alloc3vec3VecB1c_EE8try_fromB9_
FNDA:0,_RINvMNtNtCs3sQMjYUjz43_12identity_did5utils11ordered_setINtB3_10OrderedSetINtNtB5_7did_key6DIDKeyNtNtNtB7_12verification10method_ref9MethodRefEE8containsB1x_EB7_
FNDA:0,_RINvMNtNtCs3sQMjYUjz43_12identity_did5utils11ordered_setINtB3_10OrderedSetReE6changeNCINvB2_7replaceB1a_E0EB7_
FNDA:0,_RNvMNtNtCs3sQMjYUjz43_12identity_did5utils11ordered_setINtB2_10OrderedSethE6appendB6_
FNDA:0,_RINvXs2_NtNtCs3sQMjYUjz43_12identity_did5utils11ordered_setINtB6_10OrderedSetINtNtB8_7did_key6DIDKeyNtNtNtBa_12verification10method_ref9MethodRefEEINtNtNtNtCs4RZURTQcbNt_4core4iter6traits7collect12FromIteratorB1d_E9from_iterINtNtNtCslaFPCg94Pel_5alloc3vec9into_iter8IntoIterB1d_EEBa_
FNDA:0,_RNvMNtNtCs3sQMjYUjz43_12identity_did5utils11ordered_setINtB2_10OrderedSetReE7prependB6_
FNDA:0,_RINvXs2_NtNtCs3sQMjYUjz43_12identity_did5utils11ordered_setINtB6_10OrderedSethEINtNtNtNtCs4RZURTQcbNt_4core4iter6traits7collect12FromIteratorhE9from_iterINtNtNtCslaFPCg94Pel_5alloc3vec9into_iter8IntoIterhEEBa_
FNDA:0,_RNvMNtNtCs3sQMjYUjz43_12identity_did5utils11ordered_setINtB2_10OrderedSetINtNtB4_7did_key6DIDKeyNtNtNtB6_12verification6method6MethodEE6appendB6_
FNDA:0,_RNvXs3_NtNtCs3sQMjYUjz43_12identity_did5utils11ordered_setINtB5_10OrderedSetINtNtB7_7did_key6DIDKeyNtNtNtB9_7service7service7ServiceEEINtNtCs4RZURTQcbNt_4core7convert7TryFromINtNtCslaFPCg94Pel_5alloc3vec3VecB1c_EE8try_fromB9_
FNDA:0,_RNvXs3_NtNtCs3sQMjYUjz43_12identity_did5utils11ordered_setINtB5_10OrderedSetINtNtB7_7did_key6DIDKeyNtNtNtB9_12verification10method_ref9MethodRefEEINtNtCs4RZURTQcbNt_4core7convert7TryFromINtNtCslaFPCg94Pel_5alloc3vec3VecB1c_EE8try_fromB9_
FNDA:0,_RINvMs4_NtNtCs3sQMjYUjz43_12identity_did5utils11ordered_setINtB6_10OrderedSetINtNtB8_7did_key6DIDKeyNtNtNtBa_12verification6method6MethodEE5queryReEBa_
FNDA:0,_RNvMNtNtCs3sQMjYUjz43_12identity_did5utils11ordered_setINtB2_10OrderedSetINtNtB4_7did_key6DIDKeyNtNtNtB6_7service7service7ServiceEE6appendB6_
FNDA:0,_RINvMs4_NtNtCs3sQMjYUjz43_12identity_did5utils11ordered_setINtB6_10OrderedSetINtNtB8_7did_key6DIDKeyNtNtNtBa_12verification10method_ref9MethodRefEE5queryNtNtB1E_12method_query11MethodQueryEBa_
FNDA:0,_RINvMs4_NtNtCs3sQMjYUjz43_12identity_did5utils11ordered_setINtB6_10OrderedSetINtNtB8_7did_key6DIDKeyNtNtNtBa_12verification6method6MethodEE5queryNtNtB1E_12method_query11MethodQueryEBa_
FNDA:0,_RNvMNtNtCs3sQMjYUjz43_12identity_did5utils11ordered_setINtB2_10OrderedSetINtNtB4_7did_key6DIDKeyNtNtNtB6_12verification10method_ref9MethodRefEE6appendB6_
FNDA:0,_RINvMNtNtCs3sQMjYUjz43_12identity_did5utils11ordered_setINtB3_10OrderedSetReE7replaceB1a_EB7_
FNDA:0,_RNvXs3_NtNtCs3sQMjYUjz43_12identity_did5utils11ordered_setINtB5_10OrderedSethEINtNtCs4RZURTQcbNt_4core7convert7TryFromINtNtCslaFPCg94Pel_5alloc3vec3VechEE8try_fromB9_
FNDA:0,_RNvNtNtNtCs3sQMjYUjz43_12identity_did5utils11ordered_set5testss_10test_works
FNDA:0,_RNvNtNtNtCs3sQMjYUjz43_12identity_did5utils11ordered_set5testss_12test_collect
FNDA:0,_RNvNtNtNtCs3sQMjYUjz43_12identity_did5utils11ordered_set5testss_13test_contains
FNDA:0,_RNvNtNtNtCs3sQMjYUjz43_12identity_did5utils11ordered_set5testss_19test_from_vec_valid
FNDA:0,_RINvMs4_NtNtCsdwuhiSxlwM7_12identity_did5utils11ordered_setINtB6_10OrderedSetINtNtB8_7did_key6DIDKeyNtNtNtBa_12verification6method6MethodEE5queryReECs9VfPsUr1MEv_19identity_credential
FNDA:0,_RNvXs3_NtNtCsdwuhiSxlwM7_12identity_did5utils11ordered_setINtB5_10OrderedSetINtNtB7_7did_key6DIDKeyNtNtNtB9_12verification6method6MethodEEINtNtCs4RZURTQcbNt_4core7convert7TryFromINtNtCslaFPCg94Pel_5alloc3vec3VecB1c_EE8try_fromCs9VfPsUr1MEv_19identity_credential
FNDA:0,_RNvMNtNtCsdwuhiSxlwM7_12identity_did5utils11ordered_setINtB2_10OrderedSetINtNtB4_7did_key6DIDKeyNtNtNtB6_7service7service7ServiceEE6appendCs9VfPsUr1MEv_19identity_credential
FNDA:0,_RNvXs3_NtNtCsdwuhiSxlwM7_12identity_did5utils11ordered_setINtB5_10OrderedSetINtNtB7_7did_key6DIDKeyNtNtNtB9_7service7service7ServiceEEINtNtCs4RZURTQcbNt_4core7convert7TryFromINtNtCslaFPCg94Pel_5alloc3vec3VecB1c_EE8try_fromCs9VfPsUr1MEv_19identity_credential
FNDA:0,_RNvMNtNtCsdwuhiSxlwM7_12identity_did5utils11ordered_setINtB2_10OrderedSetINtNtB4_7did_key6DIDKeyNtNtNtB6_12verification10method_ref9MethodRefEE6appendCs9VfPsUr1MEv_19identity_credential
FNDA:0,_RINvMs4_NtNtCsdwuhiSxlwM7_12identity_did5utils11ordered_setINtB6_10OrderedSetINtNtB8_7did_key6DIDKeyNtNtNtBa_12verification10method_ref9MethodRefEE5queryNtNtB1E_12method_query11MethodQueryECs9VfPsUr1MEv_19identity_credential
FNDA:0,_RINvMs4_NtNtCsdwuhiSxlwM7_12identity_did5utils11ordered_setINtB6_10OrderedSetINtNtB8_7did_key6DIDKeyNtNtNtBa_12verification6method6MethodEE5queryNtNtB1E_12method_query11MethodQueryECs9VfPsUr1MEv_19identity_credential
FNDA:0,_RNvXs3_NtNtCsdwuhiSxlwM7_12identity_did5utils11ordered_setINtB5_10OrderedSetINtNtB7_7did_key6DIDKeyNtNtNtB9_12verification10method_ref9MethodRefEEINtNtCs4RZURTQcbNt_4core7convert7TryFromINtNtCslaFPCg94Pel_5alloc3vec3VecB1c_EE8try_fromCs9VfPsUr1MEv_19identity_credential
FNDA:0,_RNvMNtNtCsdwuhiSxlwM7_12identity_did5utils11ordered_setINtB2_10OrderedSetINtNtB4_7did_key6DIDKeyNtNtNtB6_12verification6method6MethodEE6appendCs9VfPsUr1MEv_19identity_credential
FNDA:0,_RINvMs4_NtNtCsdwuhiSxlwM7_12identity_did5utils11ordered_setINtB6_10OrderedSetINtNtB8_7did_key6DIDKeyNtNtNtBa_12verification10method_ref9MethodRefEE9query_mutNtNtB1E_12method_query11MethodQueryECskt00YjyhLiG_13identity_wasm
FNDA:0,_RINvMs4_NtNtCsdwuhiSxlwM7_12identity_did5utils11ordered_setINtB6_10OrderedSetINtNtB8_7did_key6DIDKeyNtNtNtBa_12verification6method6MethodEE9query_mutNtNtB1E_12method_query11MethodQueryECskt00YjyhLiG_13identity_wasm
FNDA:0,_RINvMs4_NtNtCsdwuhiSxlwM7_12identity_did5utils11ordered_setINtB6_10OrderedSetINtNtB8_7did_key6DIDKeyNtNtNtBa_12verification6method6MethodEE9query_mutReECskt00YjyhLiG_13identity_wasm
FNDA:0,_RNvXs3_NtNtCsdwuhiSxlwM7_12identity_did5utils11ordered_setINtB5_10OrderedSetINtNtB7_7did_key6DIDKeyNtNtNtB9_7service7service7ServiceEEINtNtCs4RZURTQcbNt_4core7convert7TryFromINtNtCslaFPCg94Pel_5alloc3vec3VecB1c_EE8try_fromCsapfZL3txtKN_13identity_iota
FNDA:0,_RNvXs3_NtNtCsdwuhiSxlwM7_12identity_did5utils11ordered_setINtB5_10OrderedSetINtNtB7_7did_key6DIDKeyNtNtNtB9_12verification10method_ref9MethodRefEEINtNtCs4RZURTQcbNt_4core7convert7TryFromINtNtCslaFPCg94Pel_5alloc3vec3VecB1c_EE8try_fromCsapfZL3txtKN_13identity_iota
FNDA:0,_RNvMNtNtCsdwuhiSxlwM7_12identity_did5utils11ordered_setINtB2_10OrderedSetINtNtB4_7did_key6DIDKeyNtNtNtB6_7service7service7ServiceEE6appendCsapfZL3txtKN_13identity_iota
FNDA:0,_RNvMNtNtCsdwuhiSxlwM7_12identity_did5utils11ordered_setINtB2_10OrderedSetINtNtB4_7did_key6DIDKeyNtNtNtB6_12verification6method6MethodEE6appendCsapfZL3txtKN_13identity_iota
FNDA:0,_RINvMs4_NtNtCsdwuhiSxlwM7_12identity_did5utils11ordered_setINtB6_10OrderedSetINtNtB8_7did_key6DIDKeyNtNtNtBa_12verification10method_ref9MethodRefEE5queryNtNtB1E_12method_query11MethodQueryECsapfZL3txtKN_13identity_iota
FNDA:0,_RNvXs3_NtNtCsdwuhiSxlwM7_12identity_did5utils11ordered_setINtB5_10OrderedSetINtNtB7_7did_key6DIDKeyINtNtNtB9_7service7service7ServiceuEEEINtNtCs4RZURTQcbNt_4core7convert7TryFromINtNtCslaFPCg94Pel_5alloc3vec3VecB1c_EE8try_fromCsapfZL3txtKN_13identity_iota
FNDA:0,_RINvMs4_NtNtCsdwuhiSxlwM7_12identity_did5utils11ordered_setINtB6_10OrderedSetINtNtB8_7did_key6DIDKeyNtNtNtBa_12verification6method6MethodEE5queryReECsapfZL3txtKN_13identity_iota
FNDA:0,_RNvMNtNtCsdwuhiSxlwM7_12identity_did5utils11ordered_setINtB2_10OrderedSetINtNtB4_7did_key6DIDKeyNtNtNtB6_12verification10method_ref9MethodRefEE6appendCsapfZL3txtKN_13identity_iota
FNDA:0,_RINvMNtNtCsdwuhiSxlwM7_12identity_did5utils11ordered_setINtB3_10OrderedSetINtNtB5_7did_key6DIDKeyNtNtNtB7_12verification6method6MethodEE6removeNtNtCs5K1KC9jRDOP_7did_url3did3DIDECsapfZL3txtKN_13identity_iota
FNDA:0,_RINvMs4_NtNtCsdwuhiSxlwM7_12identity_did5utils11ordered_setINtB6_10OrderedSetINtNtB8_7did_key6DIDKeyNtNtNtBa_12verification6method6MethodEE5queryNtNtB1E_12method_query11MethodQueryECsapfZL3txtKN_13identity_iota
FNDA:0,_RNvMNtNtCsdwuhiSxlwM7_12identity_did5utils11ordered_setINtB2_10OrderedSetINtNtB4_7did_key6DIDKeyINtNtNtB6_7service7service7ServiceuEEE6appendCsapfZL3txtKN_13identity_iota
FNDA:0,_RNvXs3_NtNtCsdwuhiSxlwM7_12identity_did5utils11ordered_setINtB5_10OrderedSetINtNtB7_7did_key6DIDKeyNtNtNtB9_12verification6method6MethodEEINtNtCs4RZURTQcbNt_4core7convert7TryFromINtNtCslaFPCg94Pel_5alloc3vec3VecB1c_EE8try_fromCsapfZL3txtKN_13identity_iota
FNDA:0,_RINvMNtNtCsdwuhiSxlwM7_12identity_did5utils11ordered_setINtB3_10OrderedSetINtNtB5_7did_key6DIDKeyNtNtNtB7_12verification10method_ref9MethodRefEE6removeNtNtCs5K1KC9jRDOP_7did_url3did3DIDECsapfZL3txtKN_13identity_iota
FNF:14
FNH:0
DA:21,0
DA:41,0
DA:42,0
DA:43,0
DA:66,0
DA:67,0
DA:68,0
DA:79,0
DA:80,0
DA:81,0
DA:91,0
DA:92,0
DA:93,0
DA:97,0
DA:98,0
DA:99,0
DA:102,0
DA:103,0
DA:104,0
DA:105,0
DA:106,0
DA:107,0
DA:108,0
DA:112,0
DA:113,0
DA:114,0
DA:115,0
DA:116,0
DA:117,0
DA:119,0
DA:120,0
DA:122,0
DA:126,0
DA:127,0
DA:128,0
DA:129,0
DA:130,0
DA:131,0
DA:133,0
DA:134,0
DA:136,0
DA:141,0
DA:142,0
DA:143,0
DA:144,0
DA:145,0
DA:146,0
DA:147,0
DA:152,0
DA:153,0
DA:154,0
DA:155,0
DA:156,0
DA:157,0
DA:161,0
DA:162,0
DA:163,0
DA:164,0
DA:165,0
DA:166,0
DA:167,0
DA:169,0
DA:170,0
DA:171,0
DA:172,0
DA:173,0
DA:175,0
DA:176,0
DA:177,0
DA:178,0
DA:179,0
DA:180,0
DA:182,0
DA:183,0
DA:191,0
DA:192,0
DA:193,0
DA:207,0
DA:208,0
DA:209,0
DA:216,0
DA:217,0
DA:218,0
DA:219,0
DA:220,0
DA:221,0
DA:222,0
DA:223,0
DA:225,0
DA:226,0
DA:227,0
DA:229,0
DA:230,0
DA:239,0
DA:240,0
DA:242,0
DA:243,0
DA:244,0
DA:245,0
DA:248,0
DA:249,0
DA:256,0
DA:257,0
DA:258,0
DA:259,0
DA:260,0
DA:261,0
DA:262,0
DA:263,0
DA:264,0
DA:265,0
DA:266,0
DA:267,0
DA:269,0
DA:270,0
DA:271,0
DA:272,0
DA:273,0
DA:274,0
DA:275,0
DA:276,0
DA:277,0
DA:278,0
DA:279,0
DA:280,0
DA:292,0
DA:293,0
DA:294,0
DA:295,0
DA:296,0
DA:297,0
DA:299,0
DA:300,0
DA:301,0
DA:303,0
DA:305,0
DA:307,0
DA:308,0
DA:309,0
DA:310,0
DA:311,0
DA:313,0
DA:314,0
DA:315,0
DA:317,0
DA:319,0
DA:320,0
DA:323,0
DA:324,0
DA:325,0
DA:327,0
DA:328,0
DA:338,0
DA:339,0
DA:340,0
DA:342,0
DA:343,0
DA:346,0
DA:347,0
DA:348,0
DA:349,0
DA:350,0
DA:351,0
DA:352,0
DA:353,0
DA:354,0
DA:355,0
DA:357,0
DA:358,0
DA:359,0
BRF:0
BFH:0
LF:189
LH:0
end_of_record
SF:identity-did/src/verifiable/document.rs
FN:199,_RINvMs8_NtNtCs3sQMjYUjz43_12identity_did10verifiable8documentINtB6_14DocumentSignerNtNtB8_10properties10PropertiesINtNtNtNtCslaFPCg94Pel_5alloc11collections5btree3map8BTreeMapNtNtB1X_6string6StringNtNtCs1CNeFI220rp_10serde_json5value5ValueEB1O_E4signNtNtB8_5tests4ThatEBa_
FN:231,_RINvMs8_NtNtCs3sQMjYUjz43_12identity_did10verifiable8documentINtB6_14DocumentSignerNtNtB8_10properties10PropertiesINtNtNtNtCslaFPCg94Pel_5alloc11collections5btree3map8BTreeMapNtNtB1X_6string6StringNtNtCs1CNeFI220rp_10serde_json5value5ValueEB1O_E15merkle_key_signNtNtB8_5tests4ThatNtNtNtCsgcTqQQq5qGi_6crypto6hashes7blake2b10Blake2b256NtNtNtNtCsjQ7CiUSXMgx_13identity_core6crypto9signature7ed255197Ed25519EBa_
FN:279,_RINvMsa_NtNtCs3sQMjYUjz43_12identity_did10verifiable8documentINtB6_16DocumentVerifierNtNtB8_10properties10PropertiesINtNtNtNtCslaFPCg94Pel_5alloc11collections5btree3map8BTreeMapNtNtB1Z_6string6StringNtNtCs1CNeFI220rp_10serde_json5value5ValueEB1Q_E6verifyNtNtB8_5tests4ThatEBa_
FN:231,_RINvMs8_NtNtCs3sQMjYUjz43_12identity_did10verifiable8documentINtB6_14DocumentSignerNtNtB8_10properties10PropertiesINtNtNtNtCslaFPCg94Pel_5alloc11collections5btree3map8BTreeMapNtNtB1X_6string6StringNtNtCs1CNeFI220rp_10serde_json5value5ValueEB1O_E15merkle_key_signNtNtB8_5tests4ThatNtNtCsfaahmxv2G8K_4sha26sha2566Sha256NtNtNtNtCsjQ7CiUSXMgx_13identity_core6crypto9signature7ed255197Ed25519EBa_
FN:307,_RINvMsa_NtNtCs3sQMjYUjz43_12identity_did10verifiable8documentINtB6_16DocumentVerifierNtNtB8_10properties10PropertiesINtNtNtNtCslaFPCg94Pel_5alloc11collections5btree3map8BTreeMapNtNtB1Z_6string6StringNtNtCs1CNeFI220rp_10serde_json5value5ValueEB1Q_E17merkle_key_verifyNtNtB8_5tests4ThatNtNtCsfaahmxv2G8K_4sha26sha2566Sha256NtNtNtNtCsjQ7CiUSXMgx_13identity_core6crypto9signature7ed255197Ed25519EBa_
FN:307,_RINvMsa_NtNtCs3sQMjYUjz43_12identity_did10verifiable8documentINtB6_16DocumentVerifierNtNtB8_10properties10PropertiesINtNtNtNtCslaFPCg94Pel_5alloc11collections5btree3map8BTreeMapNtNtB1Z_6string6StringNtNtCs1CNeFI220rp_10serde_json5value5ValueEB1Q_E17merkle_key_verifyNtNtB8_5tests4ThatNtNtNtCsgcTqQQq5qGi_6crypto6hashes7blake2b10Blake2b256NtNtNtNtCsjQ7CiUSXMgx_13identity_core6crypto9signature7ed255197Ed25519EBa_
FN:117,_RNvMs3_NtNtCs3sQMjYUjz43_12identity_did10verifiable8documentINtNtNtB9_8document8document8DocumentNtNtB7_10properties10PropertiesE11verify_thisB9_
FN:97,_RINvMs3_NtNtCs3sQMjYUjz43_12identity_did10verifiable8documentINtNtNtBa_8document8document8DocumentNtNtB8_10properties10PropertiesE9sign_thisReEBa_
FN:199,_RINvMs8_NtNtCsdwuhiSxlwM7_12identity_did10verifiable8documentINtB6_14DocumentSignerINtNtNtNtCslaFPCg94Pel_5alloc11collections5btree3map8BTreeMapNtNtB1s_6string6StringNtNtCs1CNeFI220rp_10serde_json5value5ValueEB1j_B1j_E4signNtNtNtCs9VfPsUr1MEv_19identity_credential10credential10credential10CredentialEB3F_
FN:231,_RINvMs8_NtNtCsdwuhiSxlwM7_12identity_did10verifiable8documentINtB6_14DocumentSignerINtNtNtNtCslaFPCg94Pel_5alloc11collections5btree3map8BTreeMapNtNtB1s_6string6StringNtNtCs1CNeFI220rp_10serde_json5value5ValueEB1j_B1j_E15merkle_key_signNtNtNtCs9VfPsUr1MEv_19identity_credential10credential10credential10CredentialNtNtCsfaahmxv2G8K_4sha26sha2566Sha256NtNtNtNtCsjQ7CiUSXMgx_13identity_core6crypto9signature7ed255197Ed25519EB3R_
FN:231,_RINvMs8_NtNtCsdwuhiSxlwM7_12identity_did10verifiable8documentINtB6_14DocumentSignerINtNtNtNtCslaFPCg94Pel_5alloc11collections5btree3map8BTreeMapNtNtB1s_6string6StringNtNtCs1CNeFI220rp_10serde_json5value5ValueEB1j_B1j_E15merkle_key_signNtNtNtCs9VfPsUr1MEv_19identity_credential10credential10credential10CredentialNtNtNtCsgcTqQQq5qGi_6crypto6hashes7blake2b10Blake2b256NtNtNtNtCsjQ7CiUSXMgx_13identity_core6crypto9signature7ed255197Ed25519EB3R_
FN:307,_RINvMsa_NtNtCsdwuhiSxlwM7_12identity_did10verifiable8documentINtB6_16DocumentVerifierINtNtB8_10properties10PropertiesNtNtNtNtCsapfZL3txtKN_13identity_iota3did3doc10properties10PropertiesEINtNtNtNtCslaFPCg94Pel_5alloc11collections5btree3map8BTreeMapNtNtB38_6string6StringNtNtCs1CNeFI220rp_10serde_json5value5ValueEuE17merkle_key_verifyNtNtNtCs1iZZWPuKeP6_19identity_credential12presentation12presentation12PresentationNtNtCsfaahmxv2G8K_4sha26sha2566Sha256NtNtNtNtCsjQ7CiUSXMgx_13identity_core6crypto9signature7ed255197Ed25519ECskt00YjyhLiG_13identity_wasm
FN:307,_RINvMsa_NtNtCsdwuhiSxlwM7_12identity_did10verifiable8documentINtB6_16DocumentVerifierINtNtB8_10properties10PropertiesNtNtNtNtCsapfZL3txtKN_13identity_iota3did3doc10properties10PropertiesEINtNtNtNtCslaFPCg94Pel_5alloc11collections5btree3map8BTreeMapNtNtB38_6string6StringNtNtCs1CNeFI220rp_10serde_json5value5ValueEuE17merkle_key_verifyNtNtNtCs1iZZWPuKeP6_19identity_credential12presentation12presentation12PresentationNtNtNtCsgcTqQQq5qGi_6crypto6hashes7blake2b10Blake2b256NtNtNtNtCsjQ7CiUSXMgx_13identity_core6crypto9signature7ed255197Ed25519ECskt00YjyhLiG_13identity_wasm
FN:279,_RINvMsa_NtNtCsdwuhiSxlwM7_12identity_did10verifiable8documentINtB6_16DocumentVerifierINtNtB8_10properties10PropertiesNtNtNtNtCsapfZL3txtKN_13identity_iota3did3doc10properties10PropertiesEINtNtNtNtCslaFPCg94Pel_5alloc11collections5btree3map8BTreeMapNtNtB38_6string6StringNtNtCs1CNeFI220rp_10serde_json5value5ValueEuE6verifyB1m_ECskt00YjyhLiG_13identity_wasm
FN:199,_RINvMs8_NtNtCsdwuhiSxlwM7_12identity_did10verifiable8documentINtB6_14DocumentSignerINtNtB8_10properties10PropertiesNtNtNtNtCsapfZL3txtKN_13identity_iota3did3doc10properties10PropertiesEINtNtNtNtCslaFPCg94Pel_5alloc11collections5btree3map8BTreeMapNtNtB36_6string6StringNtNtCs1CNeFI220rp_10serde_json5value5ValueEuE4signB1k_ECskt00YjyhLiG_13identity_wasm
FN:231,_RINvMs8_NtNtCsdwuhiSxlwM7_12identity_did10verifiable8documentINtB6_14DocumentSignerINtNtB8_10properties10PropertiesNtNtNtNtCsapfZL3txtKN_13identity_iota3did3doc10properties10PropertiesEINtNtNtNtCslaFPCg94Pel_5alloc11collections5btree3map8BTreeMapNtNtB36_6string6StringNtNtCs1CNeFI220rp_10serde_json5value5ValueEuE15merkle_key_signB1k_NtNtNtCsgcTqQQq5qGi_6crypto6hashes7blake2b10Blake2b256NtNtNtNtCsjQ7CiUSXMgx_13identity_core6crypto9signature7ed255197Ed25519ECskt00YjyhLiG_13identity_wasm
FN:231,_RINvMs8_NtNtCsdwuhiSxlwM7_12identity_did10verifiable8documentINtB6_14DocumentSignerINtNtB8_10properties10PropertiesNtNtNtNtCsapfZL3txtKN_13identity_iota3did3doc10properties10PropertiesEINtNtNtNtCslaFPCg94Pel_5alloc11collections5btree3map8BTreeMapNtNtB36_6string6StringNtNtCs1CNeFI220rp_10serde_json5value5ValueEuE15merkle_key_signB1k_NtNtCsfaahmxv2G8K_4sha26sha2566Sha256NtNtNtNtCsjQ7CiUSXMgx_13identity_core6crypto9signature7ed255197Ed25519ECskt00YjyhLiG_13identity_wasm
FN:307,_RINvMsa_NtNtCsdwuhiSxlwM7_12identity_did10verifiable8documentINtB6_16DocumentVerifierINtNtB8_10properties10PropertiesNtNtNtNtCsapfZL3txtKN_13identity_iota3did3doc10properties10PropertiesEINtNtNtNtCslaFPCg94Pel_5alloc11collections5btree3map8BTreeMapNtNtB38_6string6StringNtNtCs1CNeFI220rp_10serde_json5value5ValueEuE17merkle_key_verifyNtNtNtCs1iZZWPuKeP6_19identity_credential10credential10credential10CredentialNtNtCsfaahmxv2G8K_4sha26sha2566Sha256NtNtNtNtCsjQ7CiUSXMgx_13identity_core6crypto9signature7ed255197Ed25519ECskt00YjyhLiG_13identity_wasm
FN:307,_RINvMsa_NtNtCsdwuhiSxlwM7_12identity_did10verifiable8documentINtB6_16DocumentVerifierINtNtB8_10properties10PropertiesNtNtNtNtCsapfZL3txtKN_13identity_iota3did3doc10properties10PropertiesEINtNtNtNtCslaFPCg94Pel_5alloc11collections5btree3map8BTreeMapNtNtB38_6string6StringNtNtCs1CNeFI220rp_10serde_json5value5ValueEuE17merkle_key_verifyNtNtNtCs1iZZWPuKeP6_19identity_credential10credential10credential10CredentialNtNtNtCsgcTqQQq5qGi_6crypto6hashes7blake2b10Blake2b256NtNtNtNtCsjQ7CiUSXMgx_13identity_core6crypto9signature7ed255197Ed25519ECskt00YjyhLiG_13identity_wasm
FN:279,_RINvMsa_NtNtCsdwuhiSxlwM7_12identity_did10verifiable8documentINtB6_16DocumentVerifierINtNtB8_10properties10PropertiesNtNtNtNtCsapfZL3txtKN_13identity_iota3did3doc10properties10PropertiesEINtNtNtNtCslaFPCg94Pel_5alloc11collections5btree3map8BTreeMapNtNtB38_6string6StringNtNtCs1CNeFI220rp_10serde_json5value5ValueEuE6verifyNtNtNtCs1iZZWPuKeP6_19identity_credential10credential10credential10CredentialECskt00YjyhLiG_13identity_wasm
FN:279,_RINvMsa_NtNtCsdwuhiSxlwM7_12identity_did10verifiable8documentINtB6_16DocumentVerifierINtNtB8_10properties10PropertiesNtNtNtNtCsapfZL3txtKN_13identity_iota3did3doc10properties10PropertiesEINtNtNtNtCslaFPCg94Pel_5alloc11collections5btree3map8BTreeMapNtNtB38_6string6StringNtNtCs1CNeFI220rp_10serde_json5value5ValueEuE6verifyNtNtNtCs1iZZWPuKeP6_19identity_credential12presentation12presentation12PresentationECskt00YjyhLiG_13identity_wasm
FN:307,_RINvMsa_NtNtCsdwuhiSxlwM7_12identity_did10verifiable8documentINtB6_16DocumentVerifierINtNtB8_10properties10PropertiesNtNtNtNtCsapfZL3txtKN_13identity_iota3did3doc10properties10PropertiesEINtNtNtNtCslaFPCg94Pel_5alloc11collections5btree3map8BTreeMapNtNtB38_6string6StringNtNtCs1CNeFI220rp_10serde_json5value5ValueEuE17merkle_key_verifyB1m_NtNtCsfaahmxv2G8K_4sha26sha2566Sha256NtNtNtNtCsjQ7CiUSXMgx_13identity_core6crypto9signature7ed255197Ed25519ECskt00YjyhLiG_13identity_wasm
FN:307,_RINvMsa_NtNtCsdwuhiSxlwM7_12identity_did10verifiable8documentINtB6_16DocumentVerifierINtNtB8_10properties10PropertiesNtNtNtNtCsapfZL3txtKN_13identity_iota3did3doc10properties10PropertiesEINtNtNtNtCslaFPCg94Pel_5alloc11collections5btree3map8BTreeMapNtNtB38_6string6StringNtNtCs1CNeFI220rp_10serde_json5value5ValueEuE17merkle_key_verifyB1m_NtNtNtCsgcTqQQq5qGi_6crypto6hashes7blake2b10Blake2b256NtNtNtNtCsjQ7CiUSXMgx_13identity_core6crypto9signature7ed255197Ed25519ECskt00YjyhLiG_13identity_wasm
FN:307,_RINvMsa_NtNtCsdwuhiSxlwM7_12identity_did10verifiable8documentINtB6_16DocumentVerifierINtNtB8_10properties10PropertiesNtNtNtNtCsapfZL3txtKN_13identity_iota3did3doc10properties10PropertiesEINtNtNtNtCslaFPCg94Pel_5alloc11collections5btree3map8BTreeMapNtNtB38_6string6StringNtNtCs1CNeFI220rp_10serde_json5value5ValueEuE17merkle_key_verifyNtNtB1V_4diff12DocumentDiffNtNtCsfaahmxv2G8K_4sha26sha2566Sha256NtNtNtNtCsjQ7CiUSXMgx_13identity_core6crypto9signature7ed255197Ed25519EB1Z_
FN:279,_RINvMsa_NtNtCsdwuhiSxlwM7_12identity_did10verifiable8documentINtB6_16DocumentVerifierINtNtB8_10properties10PropertiesNtNtNtNtCsapfZL3txtKN_13identity_iota3did3doc10properties10PropertiesEINtNtNtNtCslaFPCg94Pel_5alloc11collections5btree3map8BTreeMapNtNtB38_6string6StringNtNtCs1CNeFI220rp_10serde_json5value5ValueEuE6verifyNtNtB1V_8document8DocumentEB1Z_
FN:199,_RINvMs8_NtNtCsdwuhiSxlwM7_12identity_did10verifiable8documentINtB6_14DocumentSignerINtNtB8_10properties10PropertiesNtNtNtNtCsapfZL3txtKN_13identity_iota3did3doc10properties10PropertiesEINtNtNtNtCslaFPCg94Pel_5alloc11collections5btree3map8BTreeMapNtNtB36_6string6StringNtNtCs1CNeFI220rp_10serde_json5value5ValueEuE4signNtNtB1T_4diff12DocumentDiffEB1X_
FN:279,_RINvMsa_NtNtCsdwuhiSxlwM7_12identity_did10verifiable8documentINtB6_16DocumentVerifierINtNtB8_10properties10PropertiesNtNtNtNtCsapfZL3txtKN_13identity_iota3did3doc10properties10PropertiesEINtNtNtNtCslaFPCg94Pel_5alloc11collections5btree3map8BTreeMapNtNtB38_6string6StringNtNtCs1CNeFI220rp_10serde_json5value5ValueEuE6verifyNtNtB1V_4diff12DocumentDiffEB1Z_
FN:307,_RINvMsa_NtNtCsdwuhiSxlwM7_12identity_did10verifiable8documentINtB6_16DocumentVerifierINtNtB8_10properties10PropertiesNtNtNtNtCsapfZL3txtKN_13identity_iota3did3doc10properties10PropertiesEINtNtNtNtCslaFPCg94Pel_5alloc11collections5btree3map8BTreeMapNtNtB38_6string6StringNtNtCs1CNeFI220rp_10serde_json5value5ValueEuE17merkle_key_verifyNtNtB1V_8document8DocumentNtNtCsfaahmxv2G8K_4sha26sha2566Sha256NtNtNtNtCsjQ7CiUSXMgx_13identity_core6crypto9signature7ed255197Ed25519EB1Z_
FN:307,_RINvMsa_NtNtCsdwuhiSxlwM7_12identity_did10verifiable8documentINtB6_16DocumentVerifierINtNtB8_10properties10PropertiesNtNtNtNtCsapfZL3txtKN_13identity_iota3did3doc10properties10PropertiesEINtNtNtNtCslaFPCg94Pel_5alloc11collections5btree3map8BTreeMapNtNtB38_6string6StringNtNtCs1CNeFI220rp_10serde_json5value5ValueEuE17merkle_key_verifyNtNtB1V_8document8DocumentNtNtNtCsgcTqQQq5qGi_6crypto6hashes7blake2b10Blake2b256NtNtNtNtCsjQ7CiUSXMgx_13identity_core6crypto9signature7ed255197Ed25519EB1Z_
FN:231,_RINvMs8_NtNtCsdwuhiSxlwM7_12identity_did10verifiable8documentINtB6_14DocumentSignerINtNtB8_10properties10PropertiesNtNtNtNtCsapfZL3txtKN_13identity_iota3did3doc10properties10PropertiesEINtNtNtNtCslaFPCg94Pel_5alloc11collections5btree3map8BTreeMapNtNtB36_6string6StringNtNtCs1CNeFI220rp_10serde_json5value5ValueEuE15merkle_key_signNtNtB1T_4diff12DocumentDiffNtNtCsfaahmxv2G8K_4sha26sha2566Sha256NtNtNtNtCsjQ7CiUSXMgx_13identity_core6crypto9signature7ed255197Ed25519EB1X_
FN:307,_RINvMsa_NtNtCsdwuhiSxlwM7_12identity_did10verifiable8documentINtB6_16DocumentVerifierINtNtB8_10properties10PropertiesNtNtNtNtCsapfZL3txtKN_13identity_iota3did3doc10properties10PropertiesEINtNtNtNtCslaFPCg94Pel_5alloc11collections5btree3map8BTreeMapNtNtB38_6string6StringNtNtCs1CNeFI220rp_10serde_json5value5ValueEuE17merkle_key_verifyNtNtB1V_4diff12DocumentDiffNtNtNtCsgcTqQQq5qGi_6crypto6hashes7blake2b10Blake2b256NtNtNtNtCsjQ7CiUSXMgx_13identity_core6crypto9signature7ed255197Ed25519EB1Z_
FN:231,_RINvMs8_NtNtCsdwuhiSxlwM7_12identity_did10verifiable8documentINtB6_14DocumentSignerINtNtB8_10properties10PropertiesNtNtNtNtCsapfZL3txtKN_13identity_iota3did3doc10properties10PropertiesEINtNtNtNtCslaFPCg94Pel_5alloc11collections5btree3map8BTreeMapNtNtB36_6string6StringNtNtCs1CNeFI220rp_10serde_json5value5ValueEuE15merkle_key_signNtNtB1T_4diff12DocumentDiffNtNtNtCsgcTqQQq5qGi_6crypto6hashes7blake2b10Blake2b256NtNtNtNtCsjQ7CiUSXMgx_13identity_core6crypto9signature7ed255197Ed25519EB1X_
FN:117,_RNvMs3_NtNtCsdwuhiSxlwM7_12identity_did10verifiable8documentINtNtNtB9_8document8document8DocumentINtNtB7_10properties10PropertiesNtNtNtNtCsapfZL3txtKN_13identity_iota3did3doc10properties10PropertiesEINtNtNtNtCslaFPCg94Pel_5alloc11collections5btree3map8BTreeMapNtNtB3k_6string6StringNtNtCs1CNeFI220rp_10serde_json5value5ValueEuE11verify_thisB2b_
FN:97,_RINvMs3_NtNtCsdwuhiSxlwM7_12identity_did10verifiable8documentINtNtNtBa_8document8document8DocumentINtNtB8_10properties10PropertiesNtNtNtNtCsapfZL3txtKN_13identity_iota3did3doc10properties10PropertiesEINtNtNtNtCslaFPCg94Pel_5alloc11collections5btree3map8BTreeMapNtNtB3l_6string6StringNtNtCs1CNeFI220rp_10serde_json5value5ValueEuE9sign_thisRB4b_EB2c_
FNDA:0,_RINvMs8_NtNtCs3sQMjYUjz43_12identity_did10verifiable8documentINtB6_14DocumentSignerNtNtB8_10properties10PropertiesINtNtNtNtCslaFPCg94Pel_5alloc11collections5btree3map8BTreeMapNtNtB1X_6string6StringNtNtCs1CNeFI220rp_10serde_json5value5ValueEB1O_E4signNtNtB8_5tests4ThatEBa_
FNDA:0,_RINvMs8_NtNtCs3sQMjYUjz43_12identity_did10verifiable8documentINtB6_14DocumentSignerNtNtB8_10properties10PropertiesINtNtNtNtCslaFPCg94Pel_5alloc11collections5btree3map8BTreeMapNtNtB1X_6string6StringNtNtCs1CNeFI220rp_10serde_json5value5ValueEB1O_E15merkle_key_signNtNtB8_5tests4ThatNtNtNtCsgcTqQQq5qGi_6crypto6hashes7blake2b10Blake2b256NtNtNtNtCsjQ7CiUSXMgx_13identity_core6crypto9signature7ed255197Ed25519EBa_
FNDA:0,_RINvMsa_NtNtCs3sQMjYUjz43_12identity_did10verifiable8documentINtB6_16DocumentVerifierNtNtB8_10properties10PropertiesINtNtNtNtCslaFPCg94Pel_5alloc11collections5btree3map8BTreeMapNtNtB1Z_6string6StringNtNtCs1CNeFI220rp_10serde_json5value5ValueEB1Q_E6verifyNtNtB8_5tests4ThatEBa_
FNDA:0,_RINvMs8_NtNtCs3sQMjYUjz43_12identity_did10verifiable8documentINtB6_14DocumentSignerNtNtB8_10properties10PropertiesINtNtNtNtCslaFPCg94Pel_5alloc11collections5btree3map8BTreeMapNtNtB1X_6string6StringNtNtCs1CNeFI220rp_10serde_json5value5ValueEB1O_E15merkle_key_signNtNtB8_5tests4ThatNtNtCsfaahmxv2G8K_4sha26sha2566Sha256NtNtNtNtCsjQ7CiUSXMgx_13identity_core6crypto9signature7ed255197Ed25519EBa_
FNDA:0,_RINvMsa_NtNtCs3sQMjYUjz43_12identity_did10verifiable8documentINtB6_16DocumentVerifierNtNtB8_10properties10PropertiesINtNtNtNtCslaFPCg94Pel_5alloc11collections5btree3map8BTreeMapNtNtB1Z_6string6StringNtNtCs1CNeFI220rp_10serde_json5value5ValueEB1Q_E17merkle_key_verifyNtNtB8_5tests4ThatNtNtCsfaahmxv2G8K_4sha26sha2566Sha256NtNtNtNtCsjQ7CiUSXMgx_13identity_core6crypto9signature7ed255197Ed25519EBa_
FNDA:0,_RINvMsa_NtNtCs3sQMjYUjz43_12identity_did10verifiable8documentINtB6_16DocumentVerifierNtNtB8_10properties10PropertiesINtNtNtNtCslaFPCg94Pel_5alloc11collections5btree3map8BTreeMapNtNtB1Z_6string6StringNtNtCs1CNeFI220rp_10serde_json5value5ValueEB1Q_E17merkle_key_verifyNtNtB8_5tests4ThatNtNtNtCsgcTqQQq5qGi_6crypto6hashes7blake2b10Blake2b256NtNtNtNtCsjQ7CiUSXMgx_13identity_core6crypto9signature7ed255197Ed25519EBa_
FNDA:0,_RNvMs3_NtNtCs3sQMjYUjz43_12identity_did10verifiable8documentINtNtNtB9_8document8document8DocumentNtNtB7_10properties10PropertiesE11verify_thisB9_
FNDA:0,_RINvMs3_NtNtCs3sQMjYUjz43_12identity_did10verifiable8documentINtNtNtBa_8document8document8DocumentNtNtB8_10properties10PropertiesE9sign_thisReEBa_
FNDA:0,_RINvMs8_NtNtCsdwuhiSxlwM7_12identity_did10verifiable8documentINtB6_14DocumentSignerINtNtNtNtCslaFPCg94Pel_5alloc11collections5btree3map8BTreeMapNtNtB1s_6string6StringNtNtCs1CNeFI220rp_10serde_json5value5ValueEB1j_B1j_E4signNtNtNtCs9VfPsUr1MEv_19identity_credential10credential10credential10CredentialEB3F_
FNDA:0,_RINvMs8_NtNtCsdwuhiSxlwM7_12identity_did10verifiable8documentINtB6_14DocumentSignerINtNtNtNtCslaFPCg94Pel_5alloc11collections5btree3map8BTreeMapNtNtB1s_6string6StringNtNtCs1CNeFI220rp_10serde_json5value5ValueEB1j_B1j_E15merkle_key_signNtNtNtCs9VfPsUr1MEv_19identity_credential10credential10credential10CredentialNtNtCsfaahmxv2G8K_4sha26sha2566Sha256NtNtNtNtCsjQ7CiUSXMgx_13identity_core6crypto9signature7ed255197Ed25519EB3R_
FNDA:0,_RINvMs8_NtNtCsdwuhiSxlwM7_12identity_did10verifiable8documentINtB6_14DocumentSignerINtNtNtNtCslaFPCg94Pel_5alloc11collections5btree3map8BTreeMapNtNtB1s_6string6StringNtNtCs1CNeFI220rp_10serde_json5value5ValueEB1j_B1j_E15merkle_key_signNtNtNtCs9VfPsUr1MEv_19identity_credential10credential10credential10CredentialNtNtNtCsgcTqQQq5qGi_6crypto6hashes7blake2b10Blake2b256NtNtNtNtCsjQ7CiUSXMgx_13identity_core6crypto9signature7ed255197Ed25519EB3R_
FNDA:0,_RINvMsa_NtNtCsdwuhiSxlwM7_12identity_did10verifiable8documentINtB6_16DocumentVerifierINtNtB8_10properties10PropertiesNtNtNtNtCsapfZL3txtKN_13identity_iota3did3doc10properties10PropertiesEINtNtNtNtCslaFPCg94Pel_5alloc11collections5btree3map8BTreeMapNtNtB38_6string6StringNtNtCs1CNeFI220rp_10serde_json5value5ValueEuE17merkle_key_verifyNtNtNtCs1iZZWPuKeP6_19identity_credential12presentation12presentation12PresentationNtNtCsfaahmxv2G8K_4sha26sha2566Sha256NtNtNtNtCsjQ7CiUSXMgx_13identity_core6crypto9signature7ed255197Ed25519ECskt00YjyhLiG_13identity_wasm
FNDA:0,_RINvMsa_NtNtCsdwuhiSxlwM7_12identity_did10verifiable8documentINtB6_16DocumentVerifierINtNtB8_10properties10PropertiesNtNtNtNtCsapfZL3txtKN_13identity_iota3did3doc10properties10PropertiesEINtNtNtNtCslaFPCg94Pel_5alloc11collections5btree3map8BTreeMapNtNtB38_6string6StringNtNtCs1CNeFI220rp_10serde_json5value5ValueEuE17merkle_key_verifyNtNtNtCs1iZZWPuKeP6_19identity_credential12presentation12presentation12PresentationNtNtNtCsgcTqQQq5qGi_6crypto6hashes7blake2b10Blake2b256NtNtNtNtCsjQ7CiUSXMgx_13identity_core6crypto9signature7ed255197Ed25519ECskt00YjyhLiG_13identity_wasm
FNDA:0,_RINvMsa_NtNtCsdwuhiSxlwM7_12identity_did10verifiable8documentINtB6_16DocumentVerifierINtNtB8_10properties10PropertiesNtNtNtNtCsapfZL3txtKN_13identity_iota3did3doc10properties10PropertiesEINtNtNtNtCslaFPCg94Pel_5alloc11collections5btree3map8BTreeMapNtNtB38_6string6StringNtNtCs1CNeFI220rp_10serde_json5value5ValueEuE6verifyB1m_ECskt00YjyhLiG_13identity_wasm
FNDA:0,_RINvMs8_NtNtCsdwuhiSxlwM7_12identity_did10verifiable8documentINtB6_14DocumentSignerINtNtB8_10properties10PropertiesNtNtNtNtCsapfZL3txtKN_13identity_iota3did3doc10properties10PropertiesEINtNtNtNtCslaFPCg94Pel_5alloc11collections5btree3map8BTreeMapNtNtB36_6string6StringNtNtCs1CNeFI220rp_10serde_json5value5ValueEuE4signB1k_ECskt00YjyhLiG_13identity_wasm
FNDA:0,_RINvMs8_NtNtCsdwuhiSxlwM7_12identity_did10verifiable8documentINtB6_14DocumentSignerINtNtB8_10properties10PropertiesNtNtNtNtCsapfZL3txtKN_13identity_iota3did3doc10properties10PropertiesEINtNtNtNtCslaFPCg94Pel_5alloc11collections5btree3map8BTreeMapNtNtB36_6string6StringNtNtCs1CNeFI220rp_10serde_json5value5ValueEuE15merkle_key_signB1k_NtNtNtCsgcTqQQq5qGi_6crypto6hashes7blake2b10Blake2b256NtNtNtNtCsjQ7CiUSXMgx_13identity_core6crypto9signature7ed255197Ed25519ECskt00YjyhLiG_13identity_wasm
FNDA:0,_RINvMs8_NtNtCsdwuhiSxlwM7_12identity_did10verifiable8documentINtB6_14DocumentSignerINtNtB8_10properties10PropertiesNtNtNtNtCsapfZL3txtKN_13identity_iota3did3doc10properties10PropertiesEINtNtNtNtCslaFPCg94Pel_5alloc11collections5btree3map8BTreeMapNtNtB36_6string6StringNtNtCs1CNeFI220rp_10serde_json5value5ValueEuE15merkle_key_signB1k_NtNtCsfaahmxv2G8K_4sha26sha2566Sha256NtNtNtNtCsjQ7CiUSXMgx_13identity_core6crypto9signature7ed255197Ed25519ECskt00YjyhLiG_13identity_wasm
FNDA:0,_RINvMsa_NtNtCsdwuhiSxlwM7_12identity_did10verifiable8documentINtB6_16DocumentVerifierINtNtB8_10properties10PropertiesNtNtNtNtCsapfZL3txtKN_13identity_iota3did3doc10properties10PropertiesEINtNtNtNtCslaFPCg94Pel_5alloc11collections5btree3map8BTreeMapNtNtB38_6string6StringNtNtCs1CNeFI220rp_10serde_json5value5ValueEuE17merkle_key_verifyNtNtNtCs1iZZWPuKeP6_19identity_credential10credential10credential10CredentialNtNtCsfaahmxv2G8K_4sha26sha2566Sha256NtNtNtNtCsjQ7CiUSXMgx_13identity_core6crypto9signature7ed255197Ed25519ECskt00YjyhLiG_13identity_wasm
FNDA:0,_RINvMsa_NtNtCsdwuhiSxlwM7_12identity_did10verifiable8documentINtB6_16DocumentVerifierINtNtB8_10properties10PropertiesNtNtNtNtCsapfZL3txtKN_13identity_iota3did3doc10properties10PropertiesEINtNtNtNtCslaFPCg94Pel_5alloc11collections5btree3map8BTreeMapNtNtB38_6string6StringNtNtCs1CNeFI220rp_10serde_json5value5ValueEuE17merkle_key_verifyNtNtNtCs1iZZWPuKeP6_19identity_credential10credential10credential10CredentialNtNtNtCsgcTqQQq5qGi_6crypto6hashes7blake2b10Blake2b256NtNtNtNtCsjQ7CiUSXMgx_13identity_core6crypto9signature7ed255197Ed25519ECskt00YjyhLiG_13identity_wasm
FNDA:0,_RINvMsa_NtNtCsdwuhiSxlwM7_12identity_did10verifiable8documentINtB6_16DocumentVerifierINtNtB8_10properties10PropertiesNtNtNtNtCsapfZL3txtKN_13identity_iota3did3doc10properties10PropertiesEINtNtNtNtCslaFPCg94Pel_5alloc11collections5btree3map8BTreeMapNtNtB38_6string6StringNtNtCs1CNeFI220rp_10serde_json5value5ValueEuE6verifyNtNtNtCs1iZZWPuKeP6_19identity_credential10credential10credential10CredentialECskt00YjyhLiG_13identity_wasm
FNDA:0,_RINvMsa_NtNtCsdwuhiSxlwM7_12identity_did10verifiable8documentINtB6_16DocumentVerifierINtNtB8_10properties10PropertiesNtNtNtNtCsapfZL3txtKN_13identity_iota3did3doc10properties10PropertiesEINtNtNtNtCslaFPCg94Pel_5alloc11collections5btree3map8BTreeMapNtNtB38_6string6StringNtNtCs1CNeFI220rp_10serde_json5value5ValueEuE6verifyNtNtNtCs1iZZWPuKeP6_19identity_credential12presentation12presentation12PresentationECskt00YjyhLiG_13identity_wasm
FNDA:0,_RINvMsa_NtNtCsdwuhiSxlwM7_12identity_did10verifiable8documentINtB6_16DocumentVerifierINtNtB8_10properties10PropertiesNtNtNtNtCsapfZL3txtKN_13identity_iota3did3doc10properties10PropertiesEINtNtNtNtCslaFPCg94Pel_5alloc11collections5btree3map8BTreeMapNtNtB38_6string6StringNtNtCs1CNeFI220rp_10serde_json5value5ValueEuE17merkle_key_verifyB1m_NtNtCsfaahmxv2G8K_4sha26sha2566Sha256NtNtNtNtCsjQ7CiUSXMgx_13identity_core6crypto9signature7ed255197Ed25519ECskt00YjyhLiG_13identity_wasm
FNDA:0,_RINvMsa_NtNtCsdwuhiSxlwM7_12identity_did10verifiable8documentINtB6_16DocumentVerifierINtNtB8_10properties10PropertiesNtNtNtNtCsapfZL3txtKN_13identity_iota3did3doc10properties10PropertiesEINtNtNtNtCslaFPCg94Pel_5alloc11collections5btree3map8BTreeMapNtNtB38_6string6StringNtNtCs1CNeFI220rp_10serde_json5value5ValueEuE17merkle_key_verifyB1m_NtNtNtCsgcTqQQq5qGi_6crypto6hashes7blake2b10Blake2b256NtNtNtNtCsjQ7CiUSXMgx_13identity_core6crypto9signature7ed255197Ed25519ECskt00YjyhLiG_13identity_wasm
FNDA:0,_RINvMsa_NtNtCsdwuhiSxlwM7_12identity_did10verifiable8documentINtB6_16DocumentVerifierINtNtB8_10properties10PropertiesNtNtNtNtCsapfZL3txtKN_13identity_iota3did3doc10properties10PropertiesEINtNtNtNtCslaFPCg94Pel_5alloc11collections5btree3map8BTreeMapNtNtB38_6string6StringNtNtCs1CNeFI220rp_10serde_json5value5ValueEuE17merkle_key_verifyNtNtB1V_4diff12DocumentDiffNtNtCsfaahmxv2G8K_4sha26sha2566Sha256NtNtNtNtCsjQ7CiUSXMgx_13identity_core6crypto9signature7ed255197Ed25519EB1Z_
FNDA:0,_RINvMsa_NtNtCsdwuhiSxlwM7_12identity_did10verifiable8documentINtB6_16DocumentVerifierINtNtB8_10properties10PropertiesNtNtNtNtCsapfZL3txtKN_13identity_iota3did3doc10properties10PropertiesEINtNtNtNtCslaFPCg94Pel_5alloc11collections5btree3map8BTreeMapNtNtB38_6string6StringNtNtCs1CNeFI220rp_10serde_json5value5ValueEuE6verifyNtNtB1V_8document8DocumentEB1Z_
FNDA:0,_RINvMs8_NtNtCsdwuhiSxlwM7_12identity_did10verifiable8documentINtB6_14DocumentSignerINtNtB8_10properties10PropertiesNtNtNtNtCsapfZL3txtKN_13identity_iota3did3doc10properties10PropertiesEINtNtNtNtCslaFPCg94Pel_5alloc11collections5btree3map8BTreeMapNtNtB36_6string6StringNtNtCs1CNeFI220rp_10serde_json5value5ValueEuE4signNtNtB1T_4diff12DocumentDiffEB1X_
FNDA:0,_RINvMsa_NtNtCsdwuhiSxlwM7_12identity_did10verifiable8documentINtB6_16DocumentVerifierINtNtB8_10properties10PropertiesNtNtNtNtCsapfZL3txtKN_13identity_iota3did3doc10properties10PropertiesEINtNtNtNtCslaFPCg94Pel_5alloc11collections5btree3map8BTreeMapNtNtB38_6string6StringNtNtCs1CNeFI220rp_10serde_json5value5ValueEuE6verifyNtNtB1V_4diff12DocumentDiffEB1Z_
FNDA:0,_RINvMsa_NtNtCsdwuhiSxlwM7_12identity_did10verifiable8documentINtB6_16DocumentVerifierINtNtB8_10properties10PropertiesNtNtNtNtCsapfZL3txtKN_13identity_iota3did3doc10properties10PropertiesEINtNtNtNtCslaFPCg94Pel_5alloc11collections5btree3map8BTreeMapNtNtB38_6string6StringNtNtCs1CNeFI220rp_10serde_json5value5ValueEuE17merkle_key_verifyNtNtB1V_8document8DocumentNtNtCsfaahmxv2G8K_4sha26sha2566Sha256NtNtNtNtCsjQ7CiUSXMgx_13identity_core6crypto9signature7ed255197Ed25519EB1Z_
FNDA:0,_RINvMsa_NtNtCsdwuhiSxlwM7_12identity_did10verifiable8documentINtB6_16DocumentVerifierINtNtB8_10properties10PropertiesNtNtNtNtCsapfZL3txtKN_13identity_iota3did3doc10properties10PropertiesEINtNtNtNtCslaFPCg94Pel_5alloc11collections5btree3map8BTreeMapNtNtB38_6string6StringNtNtCs1CNeFI220rp_10serde_json5value5ValueEuE17merkle_key_verifyNtNtB1V_8document8DocumentNtNtNtCsgcTqQQq5qGi_6crypto6hashes7blake2b10Blake2b256NtNtNtNtCsjQ7CiUSXMgx_13identity_core6crypto9signature7ed255197Ed25519EB1Z_
FNDA:0,_RINvMs8_NtNtCsdwuhiSxlwM7_12identity_did10verifiable8documentINtB6_14DocumentSignerINtNtB8_10properties10PropertiesNtNtNtNtCsapfZL3txtKN_13identity_iota3did3doc10properties10PropertiesEINtNtNtNtCslaFPCg94Pel_5alloc11collections5btree3map8BTreeMapNtNtB36_6string6StringNtNtCs1CNeFI220rp_10serde_json5value5ValueEuE15merkle_key_signNtNtB1T_4diff12DocumentDiffNtNtCsfaahmxv2G8K_4sha26sha2566Sha256NtNtNtNtCsjQ7CiUSXMgx_13identity_core6crypto9signature7ed255197Ed25519EB1X_
FNDA:0,_RINvMsa_NtNtCsdwuhiSxlwM7_12identity_did10verifiable8documentINtB6_16DocumentVerifierINtNtB8_10properties10PropertiesNtNtNtNtCsapfZL3txtKN_13identity_iota3did3doc10properties10PropertiesEINtNtNtNtCslaFPCg94Pel_5alloc11collections5btree3map8BTreeMapNtNtB38_6string6StringNtNtCs1CNeFI220rp_10serde_json5value5ValueEuE17merkle_key_verifyNtNtB1V_4diff12DocumentDiffNtNtNtCsgcTqQQq5qGi_6crypto6hashes7blake2b10Blake2b256NtNtNtNtCsjQ7CiUSXMgx_13identity_core6crypto9signature7ed255197Ed25519EB1Z_
FNDA:0,_RINvMs8_NtNtCsdwuhiSxlwM7_12identity_did10verifiable8documentINtB6_14DocumentSignerINtNtB8_10properties10PropertiesNtNtNtNtCsapfZL3txtKN_13identity_iota3did3doc10properties10PropertiesEINtNtNtNtCslaFPCg94Pel_5alloc11collections5btree3map8BTreeMapNtNtB36_6string6StringNtNtCs1CNeFI220rp_10serde_json5value5ValueEuE15merkle_key_signNtNtB1T_4diff12DocumentDiffNtNtNtCsgcTqQQq5qGi_6crypto6hashes7blake2b10Blake2b256NtNtNtNtCsjQ7CiUSXMgx_13identity_core6crypto9signature7ed255197Ed25519EB1X_
FNDA:0,_RNvMs3_NtNtCsdwuhiSxlwM7_12identity_did10verifiable8documentINtNtNtB9_8document8document8DocumentINtNtB7_10properties10PropertiesNtNtNtNtCsapfZL3txtKN_13identity_iota3did3doc10properties10PropertiesEINtNtNtNtCslaFPCg94Pel_5alloc11collections5btree3map8BTreeMapNtNtB3k_6string6StringNtNtCs1CNeFI220rp_10serde_json5value5ValueEuE11verify_thisB2b_
FNDA:0,_RINvMs3_NtNtCsdwuhiSxlwM7_12identity_did10verifiable8documentINtNtNtBa_8document8document8DocumentINtNtB8_10properties10PropertiesNtNtNtNtCsapfZL3txtKN_13identity_iota3did3doc10properties10PropertiesEINtNtNtNtCslaFPCg94Pel_5alloc11collections5btree3map8BTreeMapNtNtB3l_6string6StringNtNtCs1CNeFI220rp_10serde_json5value5ValueEuE9sign_thisRB4b_EB2c_
FNF:6
FNH:0
DA:97,0
DA:98,0
DA:99,0
DA:100,0
DA:101,0
DA:102,0
DA:104,0
DA:105,0
DA:106,0
DA:110,0
DA:114,0
DA:115,0
DA:117,0
DA:118,0
DA:119,0
DA:120,0
DA:122,0
DA:123,0
DA:124,0
DA:128,0
DA:132,0
DA:133,0
DA:199,0
DA:200,0
DA:201,0
DA:202,0
DA:203,0
DA:204,0
DA:205,0
DA:207,0
DA:208,0
DA:209,0
DA:212,0
DA:214,0
DA:216,0
DA:219,0
DA:222,0
DA:228,0
DA:229,0
DA:231,0
DA:232,0
DA:233,0
DA:234,0
DA:235,0
DA:236,0
DA:237,0
DA:238,0
DA:239,0
DA:240,0
DA:241,0
DA:242,0
DA:244,0
DA:246,0
DA:248,0
DA:250,0
DA:252,0
DA:279,0
DA:280,0
DA:281,0
DA:282,0
DA:283,0
DA:284,0
DA:285,0
DA:287,0
DA:288,0
DA:289,0
DA:291,0
DA:293,0
DA:296,0
DA:299,0
DA:304,0
DA:305,0
DA:307,0
DA:308,0
DA:309,0
DA:310,0
DA:311,0
DA:312,0
DA:313,0
DA:314,0
DA:316,0
DA:317,0
DA:318,0
DA:320,0
DA:322,0
DA:323,0
BRF:0
BFH:0
LF:86
LH:0
end_of_record
SF:identity-did/src/verifiable/traits.rs
FN:13,_RNvXs_NtNtCs3sQMjYUjz43_12identity_did10verifiable6traitsINtNtNtNtCslaFPCg94Pel_5alloc11collections5btree3map8BTreeMapNtNtB12_6string6StringNtNtCs1CNeFI220rp_10serde_json5value5ValueENtB4_10Revocation10revocation
FN:13,_RNvXs_NtNtCsdwuhiSxlwM7_12identity_did10verifiable6traitsINtNtNtNtCslaFPCg94Pel_5alloc11collections5btree3map8BTreeMapNtNtB12_6string6StringNtNtCs1CNeFI220rp_10serde_json5value5ValueENtB4_10Revocation10revocation
FNDA:0,_RNvXs_NtNtCs3sQMjYUjz43_12identity_did10verifiable6traitsINtNtNtNtCslaFPCg94Pel_5alloc11collections5btree3map8BTreeMapNtNtB12_6string6StringNtNtCs1CNeFI220rp_10serde_json5value5ValueENtB4_10Revocation10revocation
FNDA:0,_RNvXs_NtNtCsdwuhiSxlwM7_12identity_did10verifiable6traitsINtNtNtNtCslaFPCg94Pel_5alloc11collections5btree3map8BTreeMapNtNtB12_6string6StringNtNtCs1CNeFI220rp_10serde_json5value5ValueENtB4_10Revocation10revocation
FNF:1
FNH:0
DA:13,0
DA:14,0
DA:15,0
DA:21,0
DA:22,0
DA:23,0
DA:24,0
DA:25,0
DA:26,0
DA:27,0
DA:28,0
DA:35,0
DA:36,0
DA:37,0
BRF:0
BFH:0
LF:14
LH:0
end_of_record
SF:identity-did/src/verification/method.rs
FN:43,_RNvMNtNtCs3sQMjYUjz43_12identity_did12verification6methodNtB2_6Method12from_builderB6_
FN:103,_RNvMNtNtCs3sQMjYUjz43_12identity_did12verification6methodNtB2_6Method17try_into_fragmentB6_
FN:103,_RNvMNtNtCsdwuhiSxlwM7_12identity_did12verification6methodNtB2_6Method17try_into_fragmentCs9VfPsUr1MEv_19identity_credential
FN:43,_RNvMNtNtCsdwuhiSxlwM7_12identity_did12verification6methodNtB2_6Method12from_builderCs9VfPsUr1MEv_19identity_credential
FN:43,_RNvMNtNtCsdwuhiSxlwM7_12identity_did12verification6methodNtB2_6Method12from_builderCsapfZL3txtKN_13identity_iota
FN:103,_RNvMNtNtCsdwuhiSxlwM7_12identity_did12verification6methodNtB2_6Method17try_into_fragmentCsapfZL3txtKN_13identity_iota
FN:121,_RNvXs_NtNtCsdwuhiSxlwM7_12identity_did12verification6methodNtB4_6MethodNtNtCs4RZURTQcbNt_4core3fmt7Display3fmtCsapfZL3txtKN_13identity_iota
FNDA:0,_RNvMNtNtCs3sQMjYUjz43_12identity_did12verification6methodNtB2_6Method12from_builderB6_
FNDA:0,_RNvMNtNtCs3sQMjYUjz43_12identity_did12verification6methodNtB2_6Method17try_into_fragmentB6_
FNDA:0,_RNvMNtNtCsdwuhiSxlwM7_12identity_did12verification6methodNtB2_6Method17try_into_fragmentCs9VfPsUr1MEv_19identity_credential
FNDA:0,_RNvMNtNtCsdwuhiSxlwM7_12identity_did12verification6methodNtB2_6Method12from_builderCs9VfPsUr1MEv_19identity_credential
FNDA:0,_RNvMNtNtCsdwuhiSxlwM7_12identity_did12verification6methodNtB2_6Method12from_builderCsapfZL3txtKN_13identity_iota
FNDA:0,_RNvMNtNtCsdwuhiSxlwM7_12identity_did12verification6methodNtB2_6Method17try_into_fragmentCsapfZL3txtKN_13identity_iota
FNDA:0,_RNvXs_NtNtCsdwuhiSxlwM7_12identity_did12verification6methodNtB4_6MethodNtNtCs4RZURTQcbNt_4core3fmt7Display3fmtCsapfZL3txtKN_13identity_iota
FNF:3
FNH:0
DA:43,0
DA:45,0
DA:46,0
DA:47,0
DA:48,0
DA:49,0
DA:51,0
DA:103,0
DA:104,0
DA:105,0
DA:106,0
DA:107,0
DA:108,0
DA:109,0
DA:121,0
DA:122,0
DA:123,0
DA:125,0
DA:127,0
BRF:0
BFH:0
LF:19
LH:0
end_of_record
SF:identity-did/src/verification/method_data.rs
FN:42,_RNvMNtNtCs3sQMjYUjz43_12identity_did12verification11method_dataNtB2_10MethodData10try_decode
FN:14,_RNvXs1_NtNtCs3sQMjYUjz43_12identity_did12verification11method_dataNtB5_10MethodDataNtNtCs4RZURTQcbNt_4core3fmt5Debug3fmt
FN:42,_RNvMNtNtCsdwuhiSxlwM7_12identity_did12verification11method_dataNtB2_10MethodData10try_decode
FN:14,_RNvXNvXNvNtNtCsdwuhiSxlwM7_12identity_did12verification11method_datas_1__NtB7_10MethodDataNtNtCsbmAr7Tf4vl1_5serde2de11Deserialize11deserializeNtB2_14___FieldVisitorNtB1s_7Visitor9expecting
FNDA:0,_RNvMNtNtCs3sQMjYUjz43_12identity_did12verification11method_dataNtB2_10MethodData10try_decode
FNDA:0,_RNvXs1_NtNtCs3sQMjYUjz43_12identity_did12verification11method_dataNtB5_10MethodDataNtNtCs4RZURTQcbNt_4core3fmt5Debug3fmt
FNDA:0,_RNvMNtNtCsdwuhiSxlwM7_12identity_did12verification11method_dataNtB2_10MethodData10try_decode
FNDA:0,_RNvXNvXNvNtNtCsdwuhiSxlwM7_12identity_did12verification11method_datas_1__NtB7_10MethodDataNtNtCsbmAr7Tf4vl1_5serde2de11Deserialize11deserializeNtB2_14___FieldVisitorNtB1s_7Visitor9expecting
FNF:3
FNH:0
DA:14,0
DA:25,0
DA:26,0
DA:27,0
DA:30,0
DA:31,0
DA:32,0
DA:42,0
DA:43,0
DA:44,0
DA:45,0
DA:46,0
DA:48,0
BRF:0
BFH:0
LF:17
LH:0
end_of_record
SF:identity-did/src/verification/method_query.rs
FN:16,_RNvMNtNtCs3sQMjYUjz43_12identity_did12verification12method_queryNtB2_11MethodQuery7matches
FN:23,_RNvMNtNtCs3sQMjYUjz43_12identity_did12verification12method_queryNtB2_11MethodQuery8fragment
FN:16,_RNvMNtNtCsdwuhiSxlwM7_12identity_did12verification12method_queryNtB2_11MethodQuery7matches
FN:23,_RNvMNtNtCsdwuhiSxlwM7_12identity_did12verification12method_queryNtB2_11MethodQuery8fragment
FNDA:0,_RNvMNtNtCs3sQMjYUjz43_12identity_did12verification12method_queryNtB2_11MethodQuery7matches
FNDA:0,_RNvMNtNtCs3sQMjYUjz43_12identity_did12verification12method_queryNtB2_11MethodQuery8fragment
FNDA:0,_RNvMNtNtCsdwuhiSxlwM7_12identity_did12verification12method_queryNtB2_11MethodQuery7matches
FNDA:0,_RNvMNtNtCsdwuhiSxlwM7_12identity_did12verification12method_queryNtB2_11MethodQuery8fragment
FNF:2
FNH:0
DA:16,0
DA:17,0
DA:18,0
DA:19,0
DA:21,0
DA:23,0
DA:24,0
DA:26,0
DA:27,0
DA:29,0
DA:31,0
DA:33,0
BRF:0
BFH:0
LF:12
LH:0
end_of_record
SF:identity-did/src/verification/method_ref.rs
FN:22,_RNvMNtNtCs3sQMjYUjz43_12identity_did12verification10method_refNtB2_9MethodRef2idB6_
FN:22,_RNvMNtNtCsdwuhiSxlwM7_12identity_did12verification10method_refNtB2_9MethodRef2idB6_
FN:82,_RNvXs_NtNtCsdwuhiSxlwM7_12identity_did12verification10method_refNtB4_9MethodRefNtNtCs4RZURTQcbNt_4core3fmt5Debug3fmtB8_
FNDA:0,_RNvMNtNtCs3sQMjYUjz43_12identity_did12verification10method_refNtB2_9MethodRef2idB6_
FNDA:0,_RNvMNtNtCsdwuhiSxlwM7_12identity_did12verification10method_refNtB2_9MethodRef2idB6_
FNDA:0,_RNvXs_NtNtCsdwuhiSxlwM7_12identity_did12verification10method_refNtB4_9MethodRefNtNtCs4RZURTQcbNt_4core3fmt5Debug3fmtB8_
FNF:2
FNH:0
DA:22,0
DA:23,0
DA:24,0
DA:25,0
DA:27,0
DA:82,0
DA:83,0
DA:84,0
DA:85,0
DA:87,0
BRF:0
BFH:0
LF:10
LH:0
end_of_record
SF:identity-did/src/verification/method_scope.rs
FN:10,_RNvXs_NtNtCsdwuhiSxlwM7_12identity_did12verification12method_scopeNtB4_11MethodScopeNtNtCs4RZURTQcbNt_4core7default7Default7default
FN:21,_RNvMNtNtCsdwuhiSxlwM7_12identity_did12verification12method_scopeNtB2_11MethodScope6as_str
FN:42,_RNvXs0_NtNtCsdwuhiSxlwM7_12identity_did12verification12method_scopeNtB5_11MethodScopeNtNtNtCs4RZURTQcbNt_4core3str6traits7FromStr8from_str
FNDA:0,_RNvXs_NtNtCsdwuhiSxlwM7_12identity_did12verification12method_scopeNtB4_11MethodScopeNtNtCs4RZURTQcbNt_4core7default7Default7default
FNDA:0,_RNvMNtNtCsdwuhiSxlwM7_12identity_did12verification12method_scopeNtB2_11MethodScope6as_str
FNDA:0,_RNvXs0_NtNtCsdwuhiSxlwM7_12identity_did12verification12method_scopeNtB5_11MethodScopeNtNtNtCs4RZURTQcbNt_4core3str6traits7FromStr8from_str
FNF:3
FNH:0
DA:10,0
DA:21,0
DA:22,0
DA:23,0
DA:24,0
DA:25,0
DA:26,0
DA:27,0
DA:28,0
DA:30,0
DA:34,0
DA:35,0
DA:36,0
DA:42,0
DA:43,0
DA:44,0
DA:45,0
DA:46,0
DA:47,0
DA:48,0
DA:49,0
DA:50,0
DA:52,0
BRF:0
BFH:0
LF:23
LH:0
end_of_record
SF:identity-did/src/verification/method_type.rs
FN:10,_RNvXs7_NtNtCs3sQMjYUjz43_12identity_did12verification11method_typeNtB5_10MethodTypeNtNtCs4RZURTQcbNt_4core3fmt5Debug3fmt
FN:10,_RNvXs0_NvXNvNtNtCsdwuhiSxlwM7_12identity_did12verification11method_types_1__NtBa_10MethodTypeNtNtCsbmAr7Tf4vl1_5serde2de11Deserialize11deserializeNtB5_9___VisitorNtB1v_7Visitor9expecting
FN:29,_RNvXs_NtNtCsdwuhiSxlwM7_12identity_did12verification11method_typeNtB4_10MethodTypeNtNtNtCs4RZURTQcbNt_4core3str6traits7FromStr8from_str
FN:18,_RNvMNtNtCsdwuhiSxlwM7_12identity_did12verification11method_typeNtB2_10MethodType6as_str
FNDA:0,_RNvXs7_NtNtCs3sQMjYUjz43_12identity_did12verification11method_typeNtB5_10MethodTypeNtNtCs4RZURTQcbNt_4core3fmt5Debug3fmt
FNDA:0,_RNvXs0_NvXNvNtNtCsdwuhiSxlwM7_12identity_did12verification11method_types_1__NtBa_10MethodTypeNtNtCsbmAr7Tf4vl1_5serde2de11Deserialize11deserializeNtB5_9___VisitorNtB1v_7Visitor9expecting
FNDA:0,_RNvXs_NtNtCsdwuhiSxlwM7_12identity_did12verification11method_typeNtB4_10MethodTypeNtNtNtCs4RZURTQcbNt_4core3str6traits7FromStr8from_str
FNDA:0,_RNvMNtNtCsdwuhiSxlwM7_12identity_did12verification11method_typeNtB2_10MethodType6as_str
FNF:4
FNH:0
DA:10,0
DA:18,0
DA:19,0
DA:20,0
DA:21,0
DA:23,0
DA:29,0
DA:30,0
DA:31,0
DA:32,0
DA:33,0
DA:35,0
BRF:0
BFH:0
LF:24
LH:0
end_of_record
SF:identity-diff/src/error.rs
FN:8,_RNvXs1_NtCs2J0sjO7rpTf_13identity_diff5errorNtB5_5ErrorNtNtCs4RZURTQcbNt_4core3fmt5Debug3fmt
FNDA:0,_RNvXs1_NtCs2J0sjO7rpTf_13identity_diff5errorNtB5_5ErrorNtNtCs4RZURTQcbNt_4core3fmt5Debug3fmt
FNF:1
FNH:0
DA:8,0
DA:19,0
DA:20,0
DA:21,0
DA:22,0
DA:23,0
DA:24,0
DA:26,0
DA:27,0
DA:28,0
DA:29,0
DA:30,0
DA:31,0
DA:33,0
DA:34,0
DA:35,0
DA:36,0
DA:37,0
DA:38,0
BRF:0
BFH:0
LF:19
LH:0
end_of_record
SF:identity-diff/src/hashmap.rs
FN:181,_RNvXs1_NtCs2J0sjO7rpTf_13identity_diff7hashmapINtB5_10InnerValueNtNtCslaFPCg94Pel_5alloc6string6StringjENtNtCs4RZURTQcbNt_4core3fmt5Debug3fmtB7_
FN:151,_RNvXs_NtCs2J0sjO7rpTf_13identity_diff7hashmapINtB4_11DiffHashMapNtNtCslaFPCg94Pel_5alloc6string6StringjENtNtCs4RZURTQcbNt_4core3fmt5Debug3fmtB6_
FN:89,_RNvXNtCs2J0sjO7rpTf_13identity_diff7hashmapINtNtNtNtCshPubVYBMhTy_3std11collections4hash3map7HashMapNtNtCslaFPCg94Pel_5alloc6string6StringjENtNtB4_6traits4Diff5mergeB4_
FN:55,_RNvXNtCs2J0sjO7rpTf_13identity_diff7hashmapINtNtNtNtCshPubVYBMhTy_3std11collections4hash3map7HashMapNtNtCslaFPCg94Pel_5alloc6string6StringjENtNtB4_6traits4Diff4diffB4_
FN:14,_RNvNtNtCs2J0sjO7rpTf_13identity_diff7hashmap5testss_17test_hashmap_diff
FN:112,_RNvXNtCskxz0FW6fCEL_13identity_diff7hashmapINtNtNtNtCshPubVYBMhTy_3std11collections4hash3map7HashMapNtNtCslaFPCg94Pel_5alloc6string6StringNtNtCs1CNeFI220rp_10serde_json5value5ValueENtNtB4_6traits4Diff9from_diffB4_
FN:89,_RNvXNtCskxz0FW6fCEL_13identity_diff7hashmapINtNtNtNtCshPubVYBMhTy_3std11collections4hash3map7HashMapNtNtCslaFPCg94Pel_5alloc6string6StringNtNtCs1CNeFI220rp_10serde_json5value5ValueENtNtB4_6traits4Diff5mergeB4_
FN:55,_RNvXNtCskxz0FW6fCEL_13identity_diff7hashmapINtNtNtNtCshPubVYBMhTy_3std11collections4hash3map7HashMapNtNtCslaFPCg94Pel_5alloc6string6StringNtNtCs1CNeFI220rp_10serde_json5value5ValueENtNtB4_6traits4Diff4diffB4_
FN:131,_RNvXNtCskxz0FW6fCEL_13identity_diff7hashmapINtNtNtNtCshPubVYBMhTy_3std11collections4hash3map7HashMapNtNtCslaFPCg94Pel_5alloc6string6StringNtNtCs1CNeFI220rp_10serde_json5value5ValueENtNtB4_6traits4Diff9into_diffB4_
FN:181,_RNvXs1_NtCskxz0FW6fCEL_13identity_diff7hashmapINtB5_10InnerValueNtNtCslaFPCg94Pel_5alloc6string6StringNtNtCs1CNeFI220rp_10serde_json5value5ValueENtNtCs4RZURTQcbNt_4core3fmt5Debug3fmtCsdwuhiSxlwM7_12identity_did
FN:151,_RNvXs_NtCskxz0FW6fCEL_13identity_diff7hashmapINtB4_11DiffHashMapNtNtCslaFPCg94Pel_5alloc6string6StringNtNtCs1CNeFI220rp_10serde_json5value5ValueENtNtCs4RZURTQcbNt_4core3fmt5Debug3fmtCsdwuhiSxlwM7_12identity_did
FNDA:0,_RNvXs1_NtCs2J0sjO7rpTf_13identity_diff7hashmapINtB5_10InnerValueNtNtCslaFPCg94Pel_5alloc6string6StringjENtNtCs4RZURTQcbNt_4core3fmt5Debug3fmtB7_
FNDA:0,_RNvXs_NtCs2J0sjO7rpTf_13identity_diff7hashmapINtB4_11DiffHashMapNtNtCslaFPCg94Pel_5alloc6string6StringjENtNtCs4RZURTQcbNt_4core3fmt5Debug3fmtB6_
FNDA:0,_RNvXNtCs2J0sjO7rpTf_13identity_diff7hashmapINtNtNtNtCshPubVYBMhTy_3std11collections4hash3map7HashMapNtNtCslaFPCg94Pel_5alloc6string6StringjENtNtB4_6traits4Diff5mergeB4_
FNDA:0,_RNvXNtCs2J0sjO7rpTf_13identity_diff7hashmapINtNtNtNtCshPubVYBMhTy_3std11collections4hash3map7HashMapNtNtCslaFPCg94Pel_5alloc6string6StringjENtNtB4_6traits4Diff4diffB4_
FNDA:0,_RNvNtNtCs2J0sjO7rpTf_13identity_diff7hashmap5testss_17test_hashmap_diff
FNDA:0,_RNvXNtCskxz0FW6fCEL_13identity_diff7hashmapINtNtNtNtCshPubVYBMhTy_3std11collections4hash3map7HashMapNtNtCslaFPCg94Pel_5alloc6string6StringNtNtCs1CNeFI220rp_10serde_json5value5ValueENtNtB4_6traits4Diff9from_diffB4_
FNDA:0,_RNvXNtCskxz0FW6fCEL_13identity_diff7hashmapINtNtNtNtCshPubVYBMhTy_3std11collections4hash3map7HashMapNtNtCslaFPCg94Pel_5alloc6string6StringNtNtCs1CNeFI220rp_10serde_json5value5ValueENtNtB4_6traits4Diff5mergeB4_
FNDA:0,_RNvXNtCskxz0FW6fCEL_13identity_diff7hashmapINtNtNtNtCshPubVYBMhTy_3std11collections4hash3map7HashMapNtNtCslaFPCg94Pel_5alloc6string6StringNtNtCs1CNeFI220rp_10serde_json5value5ValueENtNtB4_6traits4Diff4diffB4_
FNDA:0,_RNvXNtCskxz0FW6fCEL_13identity_diff7hashmapINtNtNtNtCshPubVYBMhTy_3std11collections4hash3map7HashMapNtNtCslaFPCg94Pel_5alloc6string6StringNtNtCs1CNeFI220rp_10serde_json5value5ValueENtNtB4_6traits4Diff9into_diffB4_
FNDA:0,_RNvXs1_NtCskxz0FW6fCEL_13identity_diff7hashmapINtB5_10InnerValueNtNtCslaFPCg94Pel_5alloc6string6StringNtNtCs1CNeFI220rp_10serde_json5value5ValueENtNtCs4RZURTQcbNt_4core3fmt5Debug3fmtCsdwuhiSxlwM7_12identity_did
FNDA:0,_RNvXs_NtCskxz0FW6fCEL_13identity_diff7hashmapINtB4_11DiffHashMapNtNtCslaFPCg94Pel_5alloc6string6StringNtNtCs1CNeFI220rp_10serde_json5value5ValueENtNtCs4RZURTQcbNt_4core3fmt5Debug3fmtCsdwuhiSxlwM7_12identity_did
FNF:7
FNH:0
DA:14,0
DA:39,0
DA:55,0
DA:56,0
DA:57,0
DA:58,0
DA:59,0
DA:60,0
DA:61,0
DA:62,0
DA:63,0
DA:65,0
DA:66,0
DA:68,0
DA:70,0
DA:71,0
DA:72,0
DA:73,0
DA:75,0
DA:76,0
DA:77,0
DA:78,0
DA:81,0
DA:82,0
DA:83,0
DA:85,0
DA:86,0
DA:89,0
DA:90,0
DA:92,0
DA:93,0
DA:94,0
DA:95,0
DA:97,0
DA:99,0
DA:100,0
DA:102,0
DA:103,0
DA:104,0
DA:108,0
DA:109,0
DA:112,0
DA:113,0
DA:114,0
DA:115,0
DA:116,0
DA:117,0
DA:118,0
DA:121,0
DA:125,0
DA:127,0
DA:128,0
DA:131,0
DA:132,0
DA:133,0
DA:134,0
DA:135,0
DA:136,0
DA:140,0
DA:141,0
DA:151,0
DA:153,0
DA:155,0
DA:156,0
DA:157,0
DA:158,0
DA:159,0
DA:160,0
DA:161,0
DA:170,0
DA:171,0
DA:172,0
DA:181,0
DA:182,0
DA:183,0
DA:184,0
DA:185,0
DA:186,0
DA:187,0
DA:188,0
DA:189,0
DA:191,0
DA:209,0
DA:210,0
DA:211,0
DA:212,0
DA:213,0
DA:214,0
DA:215,0
DA:216,0
DA:217,0
DA:218,0
DA:219,0
DA:220,0
DA:221,0
DA:222,0
DA:223,0
DA:224,0
DA:225,0
DA:226,0
DA:227,0
DA:228,0
DA:229,0
DA:230,0
DA:231,0
DA:232,0
DA:233,0
DA:234,0
DA:235,0
DA:236,0
DA:238,0
DA:239,0
DA:240,0
DA:242,0
DA:243,0
BRF:0
BFH:0
LF:134
LH:0
end_of_record
SF:identity-diff/src/hashset.rs
FN:119,_RNvXs0_NtCs2J0sjO7rpTf_13identity_diff7hashsetINtB5_10InnerValueNtNtCslaFPCg94Pel_5alloc6string6StringENtNtCs4RZURTQcbNt_4core3fmt5Debug3fmtB7_
FN:104,_RNvXs_NtCs2J0sjO7rpTf_13identity_diff7hashsetINtB4_11DiffHashSetNtNtCslaFPCg94Pel_5alloc6string6StringENtNtCs4RZURTQcbNt_4core3fmt5Debug3fmtB6_
FN:13,_RNvNtNtCs2J0sjO7rpTf_13identity_diff7hashset5testss_17test_hashset_diff
FN:29,_RNvXNtCs2J0sjO7rpTf_13identity_diff7hashsetINtNtNtNtCshPubVYBMhTy_3std11collections4hash3set7HashSetNtNtCslaFPCg94Pel_5alloc6string6StringENtNtB4_6traits4Diff4diffB4_
FN:48,_RNvXNtCs2J0sjO7rpTf_13identity_diff7hashsetINtNtNtNtCshPubVYBMhTy_3std11collections4hash3set7HashSetNtNtCslaFPCg94Pel_5alloc6string6StringENtNtB4_6traits4Diff5mergeB4_
FNDA:0,_RNvXs0_NtCs2J0sjO7rpTf_13identity_diff7hashsetINtB5_10InnerValueNtNtCslaFPCg94Pel_5alloc6string6StringENtNtCs4RZURTQcbNt_4core3fmt5Debug3fmtB7_
FNDA:0,_RNvXs_NtCs2J0sjO7rpTf_13identity_diff7hashsetINtB4_11DiffHashSetNtNtCslaFPCg94Pel_5alloc6string6StringENtNtCs4RZURTQcbNt_4core3fmt5Debug3fmtB6_
FNDA:0,_RNvNtNtCs2J0sjO7rpTf_13identity_diff7hashset5testss_17test_hashset_diff
FNDA:0,_RNvXNtCs2J0sjO7rpTf_13identity_diff7hashsetINtNtNtNtCshPubVYBMhTy_3std11collections4hash3set7HashSetNtNtCslaFPCg94Pel_5alloc6string6StringENtNtB4_6traits4Diff4diffB4_
FNDA:0,_RNvXNtCs2J0sjO7rpTf_13identity_diff7hashsetINtNtNtNtCshPubVYBMhTy_3std11collections4hash3set7HashSetNtNtCslaFPCg94Pel_5alloc6string6StringENtNtB4_6traits4Diff5mergeB4_
FNF:5
FNH:0
DA:13,0
DA:16,0
DA:29,0
DA:30,0
DA:31,0
DA:33,0
DA:34,0
DA:35,0
DA:36,0
DA:39,0
DA:40,0
DA:41,0
DA:44,0
DA:46,0
DA:48,0
DA:49,0
DA:50,0
DA:51,0
DA:52,0
DA:53,0
DA:54,0
DA:55,0
DA:56,0
DA:58,0
DA:59,0
DA:63,0
DA:66,0
DA:68,0
DA:69,0
DA:70,0
DA:72,0
DA:73,0
DA:74,0
DA:76,0
DA:78,0
DA:80,0
DA:81,0
DA:82,0
DA:83,0
DA:84,0
DA:85,0
DA:86,0
DA:88,0
DA:89,0
DA:90,0
DA:94,0
DA:95,0
DA:96,0
DA:104,0
DA:105,0
DA:106,0
DA:107,0
DA:108,0
DA:109,0
DA:110,0
DA:111,0
DA:112,0
DA:119,0
DA:120,0
DA:121,0
DA:122,0
DA:124,0
DA:141,0
DA:142,0
DA:143,0
DA:144,0
DA:145,0
DA:146,0
DA:147,0
DA:148,0
DA:149,0
DA:150,0
DA:151,0
DA:152,0
DA:153,0
DA:155,0
DA:156,0
DA:158,0
DA:159,0
DA:160,0
BRF:0
BFH:0
LF:80
LH:0
end_of_record
SF:identity-diff/src/macros.rs
FN:49,_RNvXsl_NtCs2J0sjO7rpTf_13identity_diff6macrosNtB5_9DiffuSizeNtNtCs4RZURTQcbNt_4core3fmt5Debug3fmt
FN:49,_RNvXs3_NtCs2J0sjO7rpTf_13identity_diff6macrosNtB5_7Diffi32NtNtCs4RZURTQcbNt_4core3fmt5Debug3fmt
FN:32,_RNvXs2_NtCs2J0sjO7rpTf_13identity_diff6macroslNtNtB7_6traits4Diff9from_diff
FN:32,_RNvXsk_NtCs2J0sjO7rpTf_13identity_diff6macrosjNtNtB7_6traits4Diff9from_diff
FN:32,_RNvXsk_NtCskxz0FW6fCEL_13identity_diff6macrosjNtNtB7_6traits4Diff9from_diff
FN:14,_RNvXNvXNvNtCskxz0FW6fCEL_13identity_diff6macrossv_1__NtB7_8DiffunitNtNtCsbmAr7Tf4vl1_5serde2de11Deserialize11deserializeNtB2_9___VisitorNtB15_7Visitor9expecting
FN:49,_RNvXsv_NtCskxz0FW6fCEL_13identity_diff6macrosNtB5_8DiffunitNtNtCs4RZURTQcbNt_4core3fmt5Debug3fmt
FN:49,_RNvXs9_NtCskxz0FW6fCEL_13identity_diff6macrosNtB5_9DiffiSizeNtNtCs4RZURTQcbNt_4core3fmt5Debug3fmt
FN:49,_RNvXsh_NtCskxz0FW6fCEL_13identity_diff6macrosNtB5_7Diffu64NtNtCs4RZURTQcbNt_4core3fmt5Debug3fmt
FN:49,_RNvXsr_NtCskxz0FW6fCEL_13identity_diff6macrosNtB5_8DiffboolNtNtCs4RZURTQcbNt_4core3fmt5Debug3fmt
FN:49,_RNvXs5_NtCskxz0FW6fCEL_13identity_diff6macrosNtB5_7Diffi64NtNtCs4RZURTQcbNt_4core3fmt5Debug3fmt
FN:49,_RNvXsj_NtCskxz0FW6fCEL_13identity_diff6macrosNtB5_8Diffu128NtNtCs4RZURTQcbNt_4core3fmt5Debug3fmt
FN:49,_RNvXsb_NtCskxz0FW6fCEL_13identity_diff6macrosNtB5_6Diffu8NtNtCs4RZURTQcbNt_4core3fmt5Debug3fmt
FN:49,_RNvXsn_NtCskxz0FW6fCEL_13identity_diff6macrosNtB5_7DiffF32NtNtCs4RZURTQcbNt_4core3fmt5Debug3fmt
FN:49,_RNvXsf_NtCskxz0FW6fCEL_13identity_diff6macrosNtB5_7Diffu32NtNtCs4RZURTQcbNt_4core3fmt5Debug3fmt
FN:49,_RNvXs1_NtCskxz0FW6fCEL_13identity_diff6macrosNtB5_7Diffi16NtNtCs4RZURTQcbNt_4core3fmt5Debug3fmt
FN:49,_RNvXs7_NtCskxz0FW6fCEL_13identity_diff6macrosNtB5_8Diffi128NtNtCs4RZURTQcbNt_4core3fmt5Debug3fmt
FN:49,_RNvXs_NtCskxz0FW6fCEL_13identity_diff6macrosNtB4_6Diffi8NtNtCs4RZURTQcbNt_4core3fmt5Debug3fmt
FN:49,_RNvXsp_NtCskxz0FW6fCEL_13identity_diff6macrosNtB5_7DiffF64NtNtCs4RZURTQcbNt_4core3fmt5Debug3fmt
FN:49,_RNvXs3_NtCskxz0FW6fCEL_13identity_diff6macrosNtB5_7Diffi32NtNtCs4RZURTQcbNt_4core3fmt5Debug3fmt
FN:49,_RNvXsl_NtCskxz0FW6fCEL_13identity_diff6macrosNtB5_9DiffuSizeNtNtCs4RZURTQcbNt_4core3fmt5Debug3fmt
FN:49,_RNvXst_NtCskxz0FW6fCEL_13identity_diff6macrosNtB5_8DiffcharNtNtCs4RZURTQcbNt_4core3fmt5Debug3fmt
FN:49,_RNvXsd_NtCskxz0FW6fCEL_13identity_diff6macrosNtB5_7Diffu16NtNtCs4RZURTQcbNt_4core3fmt5Debug3fmt
FNDA:0,_RNvXsl_NtCs2J0sjO7rpTf_13identity_diff6macrosNtB5_9DiffuSizeNtNtCs4RZURTQcbNt_4core3fmt5Debug3fmt
FNDA:0,_RNvXs3_NtCs2J0sjO7rpTf_13identity_diff6macrosNtB5_7Diffi32NtNtCs4RZURTQcbNt_4core3fmt5Debug3fmt
FNDA:0,_RNvXs2_NtCs2J0sjO7rpTf_13identity_diff6macroslNtNtB7_6traits4Diff9from_diff
FNDA:0,_RNvXsk_NtCs2J0sjO7rpTf_13identity_diff6macrosjNtNtB7_6traits4Diff9from_diff
FNDA:0,_RNvXsk_NtCskxz0FW6fCEL_13identity_diff6macrosjNtNtB7_6traits4Diff9from_diff
FNDA:0,_RNvXNvXNvNtCskxz0FW6fCEL_13identity_diff6macrossv_1__NtB7_8DiffunitNtNtCsbmAr7Tf4vl1_5serde2de11Deserialize11deserializeNtB2_9___VisitorNtB15_7Visitor9expecting
FNDA:0,_RNvXsv_NtCskxz0FW6fCEL_13identity_diff6macrosNtB5_8DiffunitNtNtCs4RZURTQcbNt_4core3fmt5Debug3fmt
FNDA:0,_RNvXs9_NtCskxz0FW6fCEL_13identity_diff6macrosNtB5_9DiffiSizeNtNtCs4RZURTQcbNt_4core3fmt5Debug3fmt
FNDA:0,_RNvXsh_NtCskxz0FW6fCEL_13identity_diff6macrosNtB5_7Diffu64NtNtCs4RZURTQcbNt_4core3fmt5Debug3fmt
FNDA:0,_RNvXsr_NtCskxz0FW6fCEL_13identity_diff6macrosNtB5_8DiffboolNtNtCs4RZURTQcbNt_4core3fmt5Debug3fmt
FNDA:0,_RNvXs5_NtCskxz0FW6fCEL_13identity_diff6macrosNtB5_7Diffi64NtNtCs4RZURTQcbNt_4core3fmt5Debug3fmt
FNDA:0,_RNvXsj_NtCskxz0FW6fCEL_13identity_diff6macrosNtB5_8Diffu128NtNtCs4RZURTQcbNt_4core3fmt5Debug3fmt
FNDA:0,_RNvXsb_NtCskxz0FW6fCEL_13identity_diff6macrosNtB5_6Diffu8NtNtCs4RZURTQcbNt_4core3fmt5Debug3fmt
FNDA:0,_RNvXsn_NtCskxz0FW6fCEL_13identity_diff6macrosNtB5_7DiffF32NtNtCs4RZURTQcbNt_4core3fmt5Debug3fmt
FNDA:0,_RNvXsf_NtCskxz0FW6fCEL_13identity_diff6macrosNtB5_7Diffu32NtNtCs4RZURTQcbNt_4core3fmt5Debug3fmt
FNDA:0,_RNvXs1_NtCskxz0FW6fCEL_13identity_diff6macrosNtB5_7Diffi16NtNtCs4RZURTQcbNt_4core3fmt5Debug3fmt
FNDA:0,_RNvXs7_NtCskxz0FW6fCEL_13identity_diff6macrosNtB5_8Diffi128NtNtCs4RZURTQcbNt_4core3fmt5Debug3fmt
FNDA:0,_RNvXs_NtCskxz0FW6fCEL_13identity_diff6macrosNtB4_6Diffi8NtNtCs4RZURTQcbNt_4core3fmt5Debug3fmt
FNDA:0,_RNvXsp_NtCskxz0FW6fCEL_13identity_diff6macrosNtB5_7DiffF64NtNtCs4RZURTQcbNt_4core3fmt5Debug3fmt
FNDA:0,_RNvXs3_NtCskxz0FW6fCEL_13identity_diff6macrosNtB5_7Diffi32NtNtCs4RZURTQcbNt_4core3fmt5Debug3fmt
FNDA:0,_RNvXsl_NtCskxz0FW6fCEL_13identity_diff6macrosNtB5_9DiffuSizeNtNtCs4RZURTQcbNt_4core3fmt5Debug3fmt
FNDA:0,_RNvXst_NtCskxz0FW6fCEL_13identity_diff6macrosNtB5_8DiffcharNtNtCs4RZURTQcbNt_4core3fmt5Debug3fmt
FNDA:0,_RNvXsd_NtCskxz0FW6fCEL_13identity_diff6macrosNtB5_7Diffu16NtNtCs4RZURTQcbNt_4core3fmt5Debug3fmt
FNF:3
FNH:0
DA:14,0
DA:22,0
DA:27,0
DA:32,0
DA:34,0
DA:35,0
DA:39,0
DA:42,0
DA:49,0
DA:51,0
DA:52,0
DA:54,0
DA:62,0
DA:63,0
DA:64,0
DA:65,0
DA:66,0
DA:67,0
DA:69,0
DA:70,0
DA:71,0
DA:72,0
DA:73,0
DA:74,0
DA:76,0
DA:77,0
DA:78,0
DA:79,0
DA:80,0
BRF:0
BFH:0
LF:33
LH:0
end_of_record
SF:identity-diff/src/object.rs
FN:27,_RNvXNtCskxz0FW6fCEL_13identity_diff6objectINtNtNtNtCslaFPCg94Pel_5alloc11collections5btree3map8BTreeMapNtNtBN_6string6StringNtNtCs1CNeFI220rp_10serde_json5value5ValueENtNtB4_6traits4Diff5merge
FN:34,_RNvXNtCskxz0FW6fCEL_13identity_diff6objectINtNtNtNtCslaFPCg94Pel_5alloc11collections5btree3map8BTreeMapNtNtBN_6string6StringNtNtCs1CNeFI220rp_10serde_json5value5ValueENtNtB4_6traits4Diff9from_diff
FNDA:0,_RNvXNtCskxz0FW6fCEL_13identity_diff6objectINtNtNtNtCslaFPCg94Pel_5alloc11collections5btree3map8BTreeMapNtNtBN_6string6StringNtNtCs1CNeFI220rp_10serde_json5value5ValueENtNtB4_6traits4Diff5merge
FNDA:0,_RNvXNtCskxz0FW6fCEL_13identity_diff6objectINtNtNtNtCslaFPCg94Pel_5alloc11collections5btree3map8BTreeMapNtNtBN_6string6StringNtNtCs1CNeFI220rp_10serde_json5value5ValueENtNtB4_6traits4Diff9from_diff
FNF:2
FNH:0
DA:27,0
DA:28,0
DA:29,0
DA:31,0
DA:32,0
DA:34,0
DA:35,0
DA:36,0
BRF:0
BFH:0
LF:8
LH:0
end_of_record
SF:identity-diff/src/option.rs
FN:38,_RNvXNtCs2J0sjO7rpTf_13identity_diff6optionINtNtCs4RZURTQcbNt_4core6option6OptionNtNtCslaFPCg94Pel_5alloc6string6StringENtNtB4_6traits4Diff5mergeB4_
FN:66,_RNvXs_NtCs2J0sjO7rpTf_13identity_diff6optionINtB4_10DiffOptionNtNtCslaFPCg94Pel_5alloc6string6StringENtNtCs4RZURTQcbNt_4core3fmt5Debug3fmtB6_
FN:12,_RNvNtNtCs2J0sjO7rpTf_13identity_diff6option5testss_16test_option_diff
FN:66,_RNvXs_NtCskxz0FW6fCEL_13identity_diff6optionINtB4_10DiffOptionNtNtCslaFPCg94Pel_5alloc6string6StringENtNtCs4RZURTQcbNt_4core3fmt5Debug3fmtCscIpsp340WEy_16derive_enum_test
FN:66,_RNvXs_NtCskxz0FW6fCEL_13identity_diff6optionINtB4_10DiffOptionjENtNtCs4RZURTQcbNt_4core3fmt5Debug3fmtCscIpsp340WEy_16derive_enum_test
FN:86,_RNvXs1_NtCskxz0FW6fCEL_13identity_diff6optionINtB5_10DiffOptionNtNtCslaFPCg94Pel_5alloc6string6StringEINtNtCs4RZURTQcbNt_4core7convert4IntoINtNtB1H_6option6OptionBZ_EE4intoCscIpsp340WEy_16derive_enum_test
FN:86,_RNvXs1_NtCskxz0FW6fCEL_13identity_diff6optionINtB5_10DiffOptionjEINtNtCs4RZURTQcbNt_4core7convert4IntoINtNtB16_6option6OptionjEE4intoCscIpsp340WEy_16derive_enum_test
FN:38,_RNvXNtCskxz0FW6fCEL_13identity_diff6optionINtNtCs4RZURTQcbNt_4core6option6OptionNtNtCslaFPCg94Pel_5alloc6string6StringENtNtB4_6traits4Diff5mergeCscIpsp340WEy_16derive_enum_test
FN:38,_RNvXNtCskxz0FW6fCEL_13identity_diff6optionINtNtCs4RZURTQcbNt_4core6option6OptionjENtNtB4_6traits4Diff5mergeCscIpsp340WEy_16derive_enum_test
FN:48,_RNvXNtCskxz0FW6fCEL_13identity_diff6optionINtNtCs4RZURTQcbNt_4core6option6OptionNtNtCslaFPCg94Pel_5alloc6string6StringENtNtB4_6traits4Diff9from_diffCscIpsp340WEy_16derive_enum_test
FN:48,_RNvXNtCskxz0FW6fCEL_13identity_diff6optionINtNtCs4RZURTQcbNt_4core6option6OptionjENtNtB4_6traits4Diff9from_diffCscIpsp340WEy_16derive_enum_test
FN:56,_RNvXNtCskxz0FW6fCEL_13identity_diff6optionINtNtCs4RZURTQcbNt_4core6option6OptionNtNtCslaFPCg94Pel_5alloc6string6StringENtNtB4_6traits4Diff9into_diffCscIpsp340WEy_16derive_enum_test
FN:56,_RNvXNtCskxz0FW6fCEL_13identity_diff6optionINtNtCs4RZURTQcbNt_4core6option6OptionjENtNtB4_6traits4Diff9into_diffCscIpsp340WEy_16derive_enum_test
FNDA:0,_RNvXNtCs2J0sjO7rpTf_13identity_diff6optionINtNtCs4RZURTQcbNt_4core6option6OptionNtNtCslaFPCg94Pel_5alloc6string6StringENtNtB4_6traits4Diff5mergeB4_
FNDA:0,_RNvXs_NtCs2J0sjO7rpTf_13identity_diff6optionINtB4_10DiffOptionNtNtCslaFPCg94Pel_5alloc6string6StringENtNtCs4RZURTQcbNt_4core3fmt5Debug3fmtB6_
FNDA:0,_RNvNtNtCs2J0sjO7rpTf_13identity_diff6option5testss_16test_option_diff
FNDA:0,_RNvXs_NtCskxz0FW6fCEL_13identity_diff6optionINtB4_10DiffOptionNtNtCslaFPCg94Pel_5alloc6string6StringENtNtCs4RZURTQcbNt_4core3fmt5Debug3fmtCscIpsp340WEy_16derive_enum_test
FNDA:0,_RNvXs_NtCskxz0FW6fCEL_13identity_diff6optionINtB4_10DiffOptionjENtNtCs4RZURTQcbNt_4core3fmt5Debug3fmtCscIpsp340WEy_16derive_enum_test
FNDA:0,_RNvXs1_NtCskxz0FW6fCEL_13identity_diff6optionINtB5_10DiffOptionNtNtCslaFPCg94Pel_5alloc6string6StringEINtNtCs4RZURTQcbNt_4core7convert4IntoINtNtB1H_6option6OptionBZ_EE4intoCscIpsp340WEy_16derive_enum_test
FNDA:0,_RNvXs1_NtCskxz0FW6fCEL_13identity_diff6optionINtB5_10DiffOptionjEINtNtCs4RZURTQcbNt_4core7convert4IntoINtNtB16_6option6OptionjEE4intoCscIpsp340WEy_16derive_enum_test
FNDA:0,_RNvXNtCskxz0FW6fCEL_13identity_diff6optionINtNtCs4RZURTQcbNt_4core6option6OptionNtNtCslaFPCg94Pel_5alloc6string6StringENtNtB4_6traits4Diff5mergeCscIpsp340WEy_16derive_enum_test
FNDA:0,_RNvXNtCskxz0FW6fCEL_13identity_diff6optionINtNtCs4RZURTQcbNt_4core6option6OptionjENtNtB4_6traits4Diff5mergeCscIpsp340WEy_16derive_enum_test
FNDA:0,_RNvXNtCskxz0FW6fCEL_13identity_diff6optionINtNtCs4RZURTQcbNt_4core6option6OptionNtNtCslaFPCg94Pel_5alloc6string6StringENtNtB4_6traits4Diff9from_diffCscIpsp340WEy_16derive_enum_test
FNDA:0,_RNvXNtCskxz0FW6fCEL_13identity_diff6optionINtNtCs4RZURTQcbNt_4core6option6OptionjENtNtB4_6traits4Diff9from_diffCscIpsp340WEy_16derive_enum_test
FNDA:0,_RNvXNtCskxz0FW6fCEL_13identity_diff6optionINtNtCs4RZURTQcbNt_4core6option6OptionNtNtCslaFPCg94Pel_5alloc6string6StringENtNtB4_6traits4Diff9into_diffCscIpsp340WEy_16derive_enum_test
FNDA:0,_RNvXNtCskxz0FW6fCEL_13identity_diff6optionINtNtCs4RZURTQcbNt_4core6option6OptionjENtNtB4_6traits4Diff9into_diffCscIpsp340WEy_16derive_enum_test
FNF:6
FNH:0
DA:12,0
DA:38,0
DA:39,0
DA:40,0
DA:41,0
DA:42,0
DA:43,0
DA:45,0
DA:48,0
DA:49,0
DA:50,0
DA:51,0
DA:53,0
DA:56,0
DA:57,0
DA:58,0
DA:59,0
DA:61,0
DA:66,0
DA:67,0
DA:68,0
DA:69,0
DA:71,0
DA:76,0
DA:77,0
DA:78,0
DA:86,0
DA:87,0
DA:88,0
DA:89,0
DA:91,0
DA:98,0
DA:99,0
DA:100,0
DA:101,0
DA:103,0
DA:112,0
DA:113,0
DA:114,0
DA:115,0
DA:116,0
DA:118,0
DA:120,0
DA:122,0
DA:123,0
BRF:0
BFH:0
LF:60
LH:0
end_of_record
SF:identity-diff/src/string.rs
FN:55,_RNvXs_NtCs2J0sjO7rpTf_13identity_diff6stringNtB4_10DiffStringNtNtCs4RZURTQcbNt_4core3fmt5Debug3fmt
FN:29,_RNvXNtCs2J0sjO7rpTf_13identity_diff6stringNtNtCslaFPCg94Pel_5alloc6string6StringNtNtB4_6traits4Diff5merge
FN:38,_RNvXNtCs2J0sjO7rpTf_13identity_diff6stringNtNtCslaFPCg94Pel_5alloc6string6StringNtNtB4_6traits4Diff9from_diff
FN:20,_RNvXNtCs2J0sjO7rpTf_13identity_diff6stringNtNtCslaFPCg94Pel_5alloc6string6StringNtNtB4_6traits4Diff4diff
FN:81,_RNvNtNtCs2J0sjO7rpTf_13identity_diff6string5testss_16test_same_string
FN:67,_RNvNtNtCs2J0sjO7rpTf_13identity_diff6string5testss_16test_string_diff
FN:29,_RNvXNtCskxz0FW6fCEL_13identity_diff6stringNtNtCslaFPCg94Pel_5alloc6string6StringNtNtB4_6traits4Diff5merge
FN:20,_RNvXNtCskxz0FW6fCEL_13identity_diff6stringNtNtCslaFPCg94Pel_5alloc6string6StringNtNtB4_6traits4Diff4diff
FN:38,_RNvXNtCskxz0FW6fCEL_13identity_diff6stringNtNtCslaFPCg94Pel_5alloc6string6StringNtNtB4_6traits4Diff9from_diff
FN:55,_RNvXs_NtCskxz0FW6fCEL_13identity_diff6stringNtB4_10DiffStringNtNtCs4RZURTQcbNt_4core3fmt5Debug3fmt
FNDA:0,_RNvXs_NtCs2J0sjO7rpTf_13identity_diff6stringNtB4_10DiffStringNtNtCs4RZURTQcbNt_4core3fmt5Debug3fmt
FNDA:0,_RNvXNtCs2J0sjO7rpTf_13identity_diff6stringNtNtCslaFPCg94Pel_5alloc6string6StringNtNtB4_6traits4Diff5merge
FNDA:0,_RNvXNtCs2J0sjO7rpTf_13identity_diff6stringNtNtCslaFPCg94Pel_5alloc6string6StringNtNtB4_6traits4Diff9from_diff
FNDA:0,_RNvXNtCs2J0sjO7rpTf_13identity_diff6stringNtNtCslaFPCg94Pel_5alloc6string6StringNtNtB4_6traits4Diff4diff
FNDA:0,_RNvNtNtCs2J0sjO7rpTf_13identity_diff6string5testss_16test_same_string
FNDA:0,_RNvNtNtCs2J0sjO7rpTf_13identity_diff6string5testss_16test_string_diff
FNDA:0,_RNvXNtCskxz0FW6fCEL_13identity_diff6stringNtNtCslaFPCg94Pel_5alloc6string6StringNtNtB4_6traits4Diff5merge
FNDA:0,_RNvXNtCskxz0FW6fCEL_13identity_diff6stringNtNtCslaFPCg94Pel_5alloc6string6StringNtNtB4_6traits4Diff4diff
FNDA:0,_RNvXNtCskxz0FW6fCEL_13identity_diff6stringNtNtCslaFPCg94Pel_5alloc6string6StringNtNtB4_6traits4Diff9from_diff
FNDA:0,_RNvXs_NtCskxz0FW6fCEL_13identity_diff6stringNtB4_10DiffStringNtNtCs4RZURTQcbNt_4core3fmt5Debug3fmt
FNF:6
FNH:0
DA:20,0
DA:21,0
DA:22,0
DA:24,0
DA:26,0
DA:29,0
DA:30,0
DA:31,0
DA:33,0
DA:35,0
DA:38,0
DA:39,0
DA:40,0
DA:41,0
DA:42,0
DA:43,0
DA:45,0
DA:55,0
DA:56,0
DA:57,0
DA:58,0
DA:60,0
DA:67,0
DA:68,0
DA:69,0
DA:70,0
DA:71,0
DA:73,0
DA:75,0
DA:77,0
DA:78,0
DA:81,0
DA:82,0
DA:83,0
DA:84,0
DA:85,0
DA:87,0
DA:88,0
DA:89,0
DA:91,0
DA:92,0
DA:93,0
BRF:0
BFH:0
LF:42
LH:0
end_of_record
SF:identity-diff/src/url.rs
FN:18,_RNvXNtCskxz0FW6fCEL_13identity_diff3urlNtNtCs5K1KC9jRDOP_7did_url3did3DIDNtNtB4_6traits4Diff5merge
FN:25,_RNvXNtCskxz0FW6fCEL_13identity_diff3urlNtNtCs5K1KC9jRDOP_7did_url3did3DIDNtNtB4_6traits4Diff9from_diff
FNDA:0,_RNvXNtCskxz0FW6fCEL_13identity_diff3urlNtNtCs5K1KC9jRDOP_7did_url3did3DIDNtNtB4_6traits4Diff5merge
FNDA:0,_RNvXNtCskxz0FW6fCEL_13identity_diff3urlNtNtCs5K1KC9jRDOP_7did_url3did3DIDNtNtB4_6traits4Diff9from_diff
FNF:2
FNH:0
DA:18,0
DA:19,0
DA:20,0
DA:21,0
DA:22,0
DA:23,0
DA:25,0
DA:26,0
DA:27,0
BRF:0
BFH:0
LF:9
LH:0
end_of_record
SF:identity-diff/src/value.rs
FN:66,_RNvNtNtCs2J0sjO7rpTf_13identity_diff5value4tests_15test_json_value
FN:36,_RNvXs_NtCs2J0sjO7rpTf_13identity_diff5valueNtNtCs1CNeFI220rp_10serde_json5value5ValueNtNtB6_6traits4Diff5merge
FN:27,_RNvXs_NtCs2J0sjO7rpTf_13identity_diff5valueNtNtCs1CNeFI220rp_10serde_json5value5ValueNtNtB6_6traits4Diff4diff
FN:45,_RNvXs_NtCs2J0sjO7rpTf_13identity_diff5valueNtNtCs1CNeFI220rp_10serde_json5value5ValueNtNtB6_6traits4Diff9from_diff
FN:45,_RNvXs_NtCskxz0FW6fCEL_13identity_diff5valueNtNtCs1CNeFI220rp_10serde_json5value5ValueNtNtB6_6traits4Diff9from_diff
FN:27,_RNvXs_NtCskxz0FW6fCEL_13identity_diff5valueNtNtCs1CNeFI220rp_10serde_json5value5ValueNtNtB6_6traits4Diff4diff
FN:36,_RNvXs_NtCskxz0FW6fCEL_13identity_diff5valueNtNtCs1CNeFI220rp_10serde_json5value5ValueNtNtB6_6traits4Diff5merge
FN:10,_RNvXNtCskxz0FW6fCEL_13identity_diff5valueNtB2_9DiffValueNtNtCs4RZURTQcbNt_4core7default7Default7default
FNDA:0,_RNvNtNtCs2J0sjO7rpTf_13identity_diff5value4tests_15test_json_value
FNDA:0,_RNvXs_NtCs2J0sjO7rpTf_13identity_diff5valueNtNtCs1CNeFI220rp_10serde_json5value5ValueNtNtB6_6traits4Diff5merge
FNDA:0,_RNvXs_NtCs2J0sjO7rpTf_13identity_diff5valueNtNtCs1CNeFI220rp_10serde_json5value5ValueNtNtB6_6traits4Diff4diff
FNDA:0,_RNvXs_NtCs2J0sjO7rpTf_13identity_diff5valueNtNtCs1CNeFI220rp_10serde_json5value5ValueNtNtB6_6traits4Diff9from_diff
FNDA:0,_RNvXs_NtCskxz0FW6fCEL_13identity_diff5valueNtNtCs1CNeFI220rp_10serde_json5value5ValueNtNtB6_6traits4Diff9from_diff
FNDA:0,_RNvXs_NtCskxz0FW6fCEL_13identity_diff5valueNtNtCs1CNeFI220rp_10serde_json5value5ValueNtNtB6_6traits4Diff4diff
FNDA:0,_RNvXs_NtCskxz0FW6fCEL_13identity_diff5valueNtNtCs1CNeFI220rp_10serde_json5value5ValueNtNtB6_6traits4Diff5merge
FNDA:0,_RNvXNtCskxz0FW6fCEL_13identity_diff5valueNtB2_9DiffValueNtNtCs4RZURTQcbNt_4core7default7Default7default
FNF:5
FNH:0
DA:10,0
DA:16,0
DA:17,0
DA:18,0
DA:27,0
DA:28,0
DA:29,0
DA:31,0
DA:33,0
DA:36,0
DA:37,0
DA:38,0
DA:40,0
DA:42,0
DA:45,0
DA:46,0
DA:47,0
DA:48,0
DA:49,0
DA:50,0
DA:52,0
DA:66,0
DA:67,0
DA:68,0
DA:69,0
DA:70,0
DA:71,0
DA:72,0
DA:73,0
DA:74,0
DA:75,0
DA:77,0
DA:78,0
DA:79,0
DA:80,0
DA:81,0
DA:82,0
DA:83,0
DA:84,0
DA:85,0
DA:87,0
DA:88,0
DA:89,0
DA:90,0
DA:91,0
DA:92,0
DA:93,0
DA:95,0
DA:96,0
BRF:0
BFH:0
LF:49
LH:0
end_of_record
SF:identity-diff/src/vec.rs
FN:9,_RNvNtNtCs2J0sjO7rpTf_13identity_diff3vec5testss_18test_diff_same_val
FN:165,_RNvNtNtCs2J0sjO7rpTf_13identity_diff3vec5testss_19test_different_vals
FN:211,_RNvNtNtCs2J0sjO7rpTf_13identity_diff3vec5testss_17test_diff_lengths
FN:34,_RNvXNtCs2J0sjO7rpTf_13identity_diff3vecINtNtCslaFPCg94Pel_5alloc3vec3VeclENtNtB4_6traits4Diff4diffB4_
FN:80,_RNvXNtCs2J0sjO7rpTf_13identity_diff3vecINtNtCslaFPCg94Pel_5alloc3vec3VeclENtNtB4_6traits4Diff9from_diffB4_
FN:59,_RNvXNtCs2J0sjO7rpTf_13identity_diff3vecINtNtCslaFPCg94Pel_5alloc3vec3VeclENtNtB4_6traits4Diff5mergeB4_
FN:116,_RNvXs0_NtCs2J0sjO7rpTf_13identity_diff3vecINtB5_8InnerVeclENtNtCs4RZURTQcbNt_4core3fmt5Debug3fmtB7_
FN:109,_RNvXs_NtCs2J0sjO7rpTf_13identity_diff3vecINtB4_7DiffVeclENtNtCs4RZURTQcbNt_4core3fmt5Debug3fmtB6_
FN:260,_RNvNtCs2J0sjO7rpTf_13identity_diff3vecs_19test_into_from_diff
FN:59,_RNvXNtCskxz0FW6fCEL_13identity_diff3vecINtNtCslaFPCg94Pel_5alloc3vec3VecINtNtNtCsdwuhiSxlwM7_12identity_did5utils7did_key6DIDKeyNtNtNtB1f_12verification6method6MethodEENtNtB4_6traits4Diff5mergeCsapfZL3txtKN_13identity_iota
FN:34,_RNvXNtCskxz0FW6fCEL_13identity_diff3vecINtNtCslaFPCg94Pel_5alloc3vec3VecNtNtNtCsjQ7CiUSXMgx_13identity_core6common3url3UrlENtNtB4_6traits4Diff4diffCsapfZL3txtKN_13identity_iota
FN:59,_RNvXNtCskxz0FW6fCEL_13identity_diff3vecINtNtCslaFPCg94Pel_5alloc3vec3VecINtNtNtCsdwuhiSxlwM7_12identity_did5utils7did_key6DIDKeyNtNtNtB1f_12verification10method_ref9MethodRefEENtNtB4_6traits4Diff5mergeCsapfZL3txtKN_13identity_iota
FN:34,_RNvXNtCskxz0FW6fCEL_13identity_diff3vecINtNtCslaFPCg94Pel_5alloc3vec3VecINtNtNtCsdwuhiSxlwM7_12identity_did5utils7did_key6DIDKeyNtNtNtB1f_7service7service7ServiceEENtNtB4_6traits4Diff4diffCsapfZL3txtKN_13identity_iota
FN:34,_RNvXNtCskxz0FW6fCEL_13identity_diff3vecINtNtCslaFPCg94Pel_5alloc3vec3VecINtNtNtCsdwuhiSxlwM7_12identity_did5utils7did_key6DIDKeyNtNtNtB1f_12verification10method_ref9MethodRefEENtNtB4_6traits4Diff4diffCsapfZL3txtKN_13identity_iota
FN:59,_RNvXNtCskxz0FW6fCEL_13identity_diff3vecINtNtCslaFPCg94Pel_5alloc3vec3VecINtNtNtCsdwuhiSxlwM7_12identity_did5utils7did_key6DIDKeyNtNtNtB1f_7service7service7ServiceEENtNtB4_6traits4Diff5mergeCsapfZL3txtKN_13identity_iota
FN:34,_RNvXNtCskxz0FW6fCEL_13identity_diff3vecINtNtCslaFPCg94Pel_5alloc3vec3VecINtNtNtCsdwuhiSxlwM7_12identity_did5utils7did_key6DIDKeyNtNtNtB1f_12verification6method6MethodEENtNtB4_6traits4Diff4diffCsapfZL3txtKN_13identity_iota
FN:59,_RNvXNtCskxz0FW6fCEL_13identity_diff3vecINtNtCslaFPCg94Pel_5alloc3vec3VecNtNtNtCsjQ7CiUSXMgx_13identity_core6common3url3UrlENtNtB4_6traits4Diff5mergeCsapfZL3txtKN_13identity_iota
FNDA:0,_RNvNtNtCs2J0sjO7rpTf_13identity_diff3vec5testss_18test_diff_same_val
FNDA:0,_RNvNtNtCs2J0sjO7rpTf_13identity_diff3vec5testss_19test_different_vals
FNDA:0,_RNvNtNtCs2J0sjO7rpTf_13identity_diff3vec5testss_17test_diff_lengths
FNDA:0,_RNvXNtCs2J0sjO7rpTf_13identity_diff3vecINtNtCslaFPCg94Pel_5alloc3vec3VeclENtNtB4_6traits4Diff4diffB4_
FNDA:0,_RNvXNtCs2J0sjO7rpTf_13identity_diff3vecINtNtCslaFPCg94Pel_5alloc3vec3VeclENtNtB4_6traits4Diff9from_diffB4_
FNDA:0,_RNvXNtCs2J0sjO7rpTf_13identity_diff3vecINtNtCslaFPCg94Pel_5alloc3vec3VeclENtNtB4_6traits4Diff5mergeB4_
FNDA:0,_RNvXs0_NtCs2J0sjO7rpTf_13identity_diff3vecINtB5_8InnerVeclENtNtCs4RZURTQcbNt_4core3fmt5Debug3fmtB7_
FNDA:0,_RNvXs_NtCs2J0sjO7rpTf_13identity_diff3vecINtB4_7DiffVeclENtNtCs4RZURTQcbNt_4core3fmt5Debug3fmtB6_
FNDA:0,_RNvNtCs2J0sjO7rpTf_13identity_diff3vecs_19test_into_from_diff
FNDA:0,_RNvXNtCskxz0FW6fCEL_13identity_diff3vecINtNtCslaFPCg94Pel_5alloc3vec3VecINtNtNtCsdwuhiSxlwM7_12identity_did5utils7did_key6DIDKeyNtNtNtB1f_12verification6method6MethodEENtNtB4_6traits4Diff5mergeCsapfZL3txtKN_13identity_iota
FNDA:0,_RNvXNtCskxz0FW6fCEL_13identity_diff3vecINtNtCslaFPCg94Pel_5alloc3vec3VecNtNtNtCsjQ7CiUSXMgx_13identity_core6common3url3UrlENtNtB4_6traits4Diff4diffCsapfZL3txtKN_13identity_iota
FNDA:0,_RNvXNtCskxz0FW6fCEL_13identity_diff3vecINtNtCslaFPCg94Pel_5alloc3vec3VecINtNtNtCsdwuhiSxlwM7_12identity_did5utils7did_key6DIDKeyNtNtNtB1f_12verification10method_ref9MethodRefEENtNtB4_6traits4Diff5mergeCsapfZL3txtKN_13identity_iota
FNDA:0,_RNvXNtCskxz0FW6fCEL_13identity_diff3vecINtNtCslaFPCg94Pel_5alloc3vec3VecINtNtNtCsdwuhiSxlwM7_12identity_did5utils7did_key6DIDKeyNtNtNtB1f_7service7service7ServiceEENtNtB4_6traits4Diff4diffCsapfZL3txtKN_13identity_iota
FNDA:0,_RNvXNtCskxz0FW6fCEL_13identity_diff3vecINtNtCslaFPCg94Pel_5alloc3vec3VecINtNtNtCsdwuhiSxlwM7_12identity_did5utils7did_key6DIDKeyNtNtNtB1f_12verification10method_ref9MethodRefEENtNtB4_6traits4Diff4diffCsapfZL3txtKN_13identity_iota
FNDA:0,_RNvXNtCskxz0FW6fCEL_13identity_diff3vecINtNtCslaFPCg94Pel_5alloc3vec3VecINtNtNtCsdwuhiSxlwM7_12identity_did5utils7did_key6DIDKeyNtNtNtB1f_7service7service7ServiceEENtNtB4_6traits4Diff5mergeCsapfZL3txtKN_13identity_iota
FNDA:0,_RNvXNtCskxz0FW6fCEL_13identity_diff3vecINtNtCslaFPCg94Pel_5alloc3vec3VecINtNtNtCsdwuhiSxlwM7_12identity_did5utils7did_key6DIDKeyNtNtNtB1f_12verification6method6MethodEENtNtB4_6traits4Diff4diffCsapfZL3txtKN_13identity_iota
FNDA:0,_RNvXNtCskxz0FW6fCEL_13identity_diff3vecINtNtCslaFPCg94Pel_5alloc3vec3VecNtNtNtCsjQ7CiUSXMgx_13identity_core6common3url3UrlENtNtB4_6traits4Diff5mergeCsapfZL3txtKN_13identity_iota
FNF:9
FNH:0
DA:9,0
DA:14,0
DA:34,0
DA:35,0
DA:36,0
DA:37,0
DA:39,0
DA:40,0
DA:41,0
DA:42,0
DA:43,0
DA:44,0
DA:45,0
DA:47,0
DA:48,0
DA:49,0
DA:50,0
DA:55,0
DA:56,0
DA:59,0
DA:60,0
DA:62,0
DA:63,0
DA:64,0
DA:65,0
DA:66,0
DA:67,0
DA:68,0
DA:69,0
DA:70,0
DA:76,0
DA:77,0
DA:80,0
DA:81,0
DA:83,0
DA:84,0
DA:85,0
DA:86,0
DA:87,0
DA:89,0
DA:93,0
DA:94,0
DA:97,0
DA:98,0
DA:99,0
DA:100,0
DA:102,0
DA:103,0
DA:109,0
DA:110,0
DA:111,0
DA:116,0
DA:117,0
DA:118,0
DA:119,0
DA:120,0
DA:121,0
DA:122,0
DA:123,0
DA:124,0
DA:126,0
DA:131,0
DA:132,0
DA:133,0
DA:141,0
DA:142,0
DA:143,0
DA:145,0
DA:146,0
DA:147,0
DA:149,0
DA:151,0
DA:153,0
DA:154,0
DA:155,0
DA:157,0
DA:159,0
DA:161,0
DA:162,0
DA:165,0
DA:166,0
DA:167,0
DA:168,0
DA:169,0
DA:173,0
DA:174,0
DA:175,0
DA:176,0
DA:177,0
DA:178,0
DA:179,0
DA:180,0
DA:181,0
DA:182,0
DA:185,0
DA:187,0
DA:188,0
DA:189,0
DA:193,0
DA:194,0
DA:195,0
DA:196,0
DA:197,0
DA:198,0
DA:199,0
DA:200,0
DA:201,0
DA:202,0
DA:205,0
DA:207,0
DA:208,0
DA:211,0
DA:212,0
DA:213,0
DA:214,0
DA:215,0
DA:219,0
DA:220,0
DA:221,0
DA:222,0
DA:223,0
DA:224,0
DA:225,0
DA:226,0
DA:227,0
DA:228,0
DA:229,0
DA:232,0
DA:234,0
DA:235,0
DA:236,0
DA:240,0
DA:241,0
DA:242,0
DA:243,0
DA:244,0
DA:245,0
DA:246,0
DA:247,0
DA:248,0
DA:249,0
DA:250,0
DA:253,0
DA:255,0
DA:256,0
DA:260,0
DA:261,0
DA:262,0
DA:263,0
DA:264,0
DA:265,0
DA:266,0
DA:268,0
DA:269,0
BRF:0
BFH:0
LF:154
LH:0
end_of_record
SF:identity-iota/src/chain/auth.rs
FN:94,_RNvMNtNtCsapfZL3txtKN_13identity_iota5chain4authNtB2_9AuthChain8try_push
FN:20,_RNvXs0_NtNtCsapfZL3txtKN_13identity_iota5chain4authNtB5_9AuthChainNtNtCs4RZURTQcbNt_4core3fmt5Debug3fmt
FN:114,_RNvMNtNtCsapfZL3txtKN_13identity_iota5chain4authNtB2_9AuthChain14check_validity
FN:56,_RNvMNtNtCsapfZL3txtKN_13identity_iota5chain4authNtB2_9AuthChain3new
FN:144,_RNvXs_NtNtCsapfZL3txtKN_13identity_iota5chain4authNtB4_9AuthChainNtNtCs4RZURTQcbNt_4core3fmt7Display3fmt
FN:29,_RNvMNtNtCsapfZL3txtKN_13identity_iota5chain4authNtB2_9AuthChain17try_from_messages
FNDA:0,_RNvMNtNtCsapfZL3txtKN_13identity_iota5chain4authNtB2_9AuthChain8try_push
FNDA:0,_RNvXs0_NtNtCsapfZL3txtKN_13identity_iota5chain4authNtB5_9AuthChainNtNtCs4RZURTQcbNt_4core3fmt5Debug3fmt
FNDA:0,_RNvMNtNtCsapfZL3txtKN_13identity_iota5chain4authNtB2_9AuthChain14check_validity
FNDA:0,_RNvMNtNtCsapfZL3txtKN_13identity_iota5chain4authNtB2_9AuthChain3new
FNDA:0,_RNvXs_NtNtCsapfZL3txtKN_13identity_iota5chain4authNtB4_9AuthChainNtNtCs4RZURTQcbNt_4core3fmt7Display3fmt
FNDA:0,_RNvMNtNtCsapfZL3txtKN_13identity_iota5chain4authNtB2_9AuthChain17try_from_messages
FNF:6
FNH:0
DA:20,0
DA:29,0
DA:30,0
DA:31,0
DA:32,0
DA:33,0
DA:35,0
DA:36,0
DA:37,0
DA:38,0
DA:39,0
DA:40,0
DA:42,0
DA:44,0
DA:45,0
DA:46,0
DA:47,0
DA:48,0
DA:52,0
DA:53,0
DA:56,0
DA:57,0
DA:58,0
DA:59,0
DA:60,0
DA:61,0
DA:62,0
DA:63,0
DA:64,0
DA:65,0
DA:66,0
DA:67,0
DA:68,0
DA:69,0
DA:70,0
DA:94,0
DA:96,0
DA:97,0
DA:98,0
DA:99,0
DA:100,0
DA:101,0
DA:102,0
DA:114,0
DA:115,0
DA:116,0
DA:117,0
DA:118,0
DA:119,0
DA:120,0
DA:121,0
DA:122,0
DA:123,0
DA:124,0
DA:125,0
DA:126,0
DA:127,0
DA:128,0
DA:129,0
DA:130,0
DA:131,0
DA:132,0
DA:133,0
DA:134,0
DA:135,0
DA:136,0
DA:137,0
DA:138,0
DA:139,0
DA:140,0
DA:144,0
DA:145,0
DA:146,0
DA:148,0
DA:150,0
BRF:0
BFH:0
LF:75
LH:0
end_of_record
SF:identity-iota/src/chain/diff.rs
FN:93,_RNvMNtNtCsapfZL3txtKN_13identity_iota5chain4diffNtB2_9DiffChain8try_push
FN:30,_RNvMNtNtCsapfZL3txtKN_13identity_iota5chain4diffNtB2_9DiffChain17try_from_messages
FN:22,_RNvXs_NtNtCsapfZL3txtKN_13identity_iota5chain4diffNtB4_9DiffChainNtNtCs4RZURTQcbNt_4core7default7Default7default
FN:159,_RNvXs0_NtNtCsapfZL3txtKN_13identity_iota5chain4diffNtB5_9DiffChainNtNtCs4RZURTQcbNt_4core3fmt7Display3fmt
FN:123,_RNvMNtNtCsapfZL3txtKN_13identity_iota5chain4diffNtB2_9DiffChain14check_validity
FN:82,_RNvMNtNtCsapfZL3txtKN_13identity_iota5chain4diffNtB2_9DiffChain18current_message_id
FNDA:0,_RNvMNtNtCsapfZL3txtKN_13identity_iota5chain4diffNtB2_9DiffChain8try_push
FNDA:0,_RNvMNtNtCsapfZL3txtKN_13identity_iota5chain4diffNtB2_9DiffChain17try_from_messages
FNDA:0,_RNvXs_NtNtCsapfZL3txtKN_13identity_iota5chain4diffNtB4_9DiffChainNtNtCs4RZURTQcbNt_4core7default7Default7default
FNDA:0,_RNvXs0_NtNtCsapfZL3txtKN_13identity_iota5chain4diffNtB5_9DiffChainNtNtCs4RZURTQcbNt_4core3fmt7Display3fmt
FNDA:0,_RNvMNtNtCsapfZL3txtKN_13identity_iota5chain4diffNtB2_9DiffChain14check_validity
FNDA:0,_RNvMNtNtCsapfZL3txtKN_13identity_iota5chain4diffNtB2_9DiffChain18current_message_id
FNF:6
FNH:0
DA:22,0
DA:30,0
DA:31,0
DA:32,0
DA:33,0
DA:34,0
DA:35,0
DA:36,0
DA:37,0
DA:38,0
DA:39,0
DA:40,0
DA:41,0
DA:42,0
DA:44,0
DA:45,0
DA:46,0
DA:47,0
DA:48,0
DA:49,0
DA:53,0
DA:54,0
DA:82,0
DA:83,0
DA:84,0
DA:93,0
DA:96,0
DA:97,0
DA:98,0
DA:99,0
DA:100,0
DA:101,0
DA:123,0
DA:124,0
DA:125,0
DA:126,0
DA:127,0
DA:128,0
DA:129,0
DA:130,0
DA:131,0
DA:132,0
DA:133,0
DA:134,0
DA:135,0
DA:136,0
DA:137,0
DA:138,0
DA:139,0
DA:140,0
DA:141,0
DA:142,0
DA:143,0
DA:144,0
DA:145,0
DA:146,0
DA:147,0
DA:148,0
DA:149,0
DA:153,0
DA:154,0
DA:155,0
DA:159,0
DA:160,0
DA:161,0
DA:163,0
DA:165,0
BRF:0
BFH:0
LF:67
LH:0
end_of_record
SF:identity-iota/src/chain/document.rs
FN:18,_RNvXs_NtNtCsapfZL3txtKN_13identity_iota5chain8documentNtB4_13DocumentChainNtNtCs4RZURTQcbNt_4core3fmt7Display3fmt
FN:106,_RNvMNtNtCsapfZL3txtKN_13identity_iota5chain8documentNtB2_13DocumentChain11current_mut
FN:101,_RNvMNtNtCsapfZL3txtKN_13identity_iota5chain8documentNtB2_13DocumentChain7current
FN:53,_RNvMNtNtCsapfZL3txtKN_13identity_iota5chain8documentNtB2_13DocumentChain15with_diff_chain
FN:33,_RNvMNtNtCsapfZL3txtKN_13identity_iota5chain8documentNtB2_13DocumentChain6___fold
FN:144,_RNvMNtNtCsapfZL3txtKN_13identity_iota5chain8documentNtB2_13DocumentChain13try_push_diff
FN:29,_RNvMNtNtCsapfZL3txtKN_13identity_iota5chain8documentNtB2_13DocumentChain17___diff_message_id
FN:130,_RNvMNtNtCsapfZL3txtKN_13identity_iota5chain8documentNtB2_13DocumentChain13try_push_auth
FN:92,_RNvMNtNtCsapfZL3txtKN_13identity_iota5chain8documentNtB2_13DocumentChain4fold
FNDA:0,_RNvXs_NtNtCsapfZL3txtKN_13identity_iota5chain8documentNtB4_13DocumentChainNtNtCs4RZURTQcbNt_4core3fmt7Display3fmt
FNDA:0,_RNvMNtNtCsapfZL3txtKN_13identity_iota5chain8documentNtB2_13DocumentChain11current_mut
FNDA:0,_RNvMNtNtCsapfZL3txtKN_13identity_iota5chain8documentNtB2_13DocumentChain7current
FNDA:0,_RNvMNtNtCsapfZL3txtKN_13identity_iota5chain8documentNtB2_13DocumentChain15with_diff_chain
FNDA:0,_RNvMNtNtCsapfZL3txtKN_13identity_iota5chain8documentNtB2_13DocumentChain6___fold
FNDA:0,_RNvMNtNtCsapfZL3txtKN_13identity_iota5chain8documentNtB2_13DocumentChain13try_push_diff
FNDA:0,_RNvMNtNtCsapfZL3txtKN_13identity_iota5chain8documentNtB2_13DocumentChain17___diff_message_id
FNDA:0,_RNvMNtNtCsapfZL3txtKN_13identity_iota5chain8documentNtB2_13DocumentChain13try_push_auth
FNDA:0,_RNvMNtNtCsapfZL3txtKN_13identity_iota5chain8documentNtB2_13DocumentChain4fold
FNF:9
FNH:0
DA:18,0
DA:29,0
DA:30,0
DA:31,0
DA:33,0
DA:34,0
DA:36,0
DA:37,0
DA:40,0
DA:41,0
DA:53,0
DA:54,0
DA:55,0
DA:57,0
DA:60,0
DA:61,0
DA:62,0
DA:63,0
DA:64,0
DA:65,0
DA:92,0
DA:93,0
DA:94,0
DA:97,0
DA:98,0
DA:101,0
DA:102,0
DA:103,0
DA:106,0
DA:107,0
DA:108,0
DA:110,0
DA:112,0
DA:130,0
DA:131,0
DA:132,0
DA:133,0
DA:134,0
DA:135,0
DA:136,0
DA:144,0
DA:146,0
DA:147,0
DA:148,0
DA:149,0
DA:151,0
DA:153,0
DA:154,0
DA:155,0
DA:156,0
DA:157,0
DA:158,0
DA:159,0
DA:160,0
DA:161,0
DA:165,0
DA:166,0
DA:167,0
DA:169,0
DA:171,0
BRF:0
BFH:0
LF:60
LH:0
end_of_record
SF:identity-iota/src/client/client.rs
FN:215,_RNCNvMNtNtCsapfZL3txtKN_13identity_iota6client6clientNtB4_6Client13send_transfer0Cskt00YjyhLiG_13identity_wasm
FN:119,_RNCNvMNtNtCsapfZL3txtKN_13identity_iota6client6clientNtB4_6Client16publish_document0Cskt00YjyhLiG_13identity_wasm
FN:237,_RINvNtNtCsapfZL3txtKN_13identity_iota6client6client15create_transferNtNtNtNtB6_3did3doc8document8DocumentECskt00YjyhLiG_13identity_wasm
FN:32,_RNvNtNtCsapfZL3txtKN_13identity_iota6client6client18___dbg_transactions
FN:228,_RNvMNtNtCsapfZL3txtKN_13identity_iota6client6clientNtB2_6Client13check_network
FN:60,_RNvMNtNtCsapfZL3txtKN_13identity_iota6client6clientNtB2_6Client12from_builder
FN:154,_RNCNvMNtNtCsapfZL3txtKN_13identity_iota6client6clientNtB4_6Client19read_document_chain0B8_
FN:180,_RNCNvMNtNtCsapfZL3txtKN_13identity_iota6client6clientNtB4_6Client13read_messages0B8_
FNDA:0,_RNCNvMNtNtCsapfZL3txtKN_13identity_iota6client6clientNtB4_6Client13send_transfer0Cskt00YjyhLiG_13identity_wasm
FNDA:0,_RNCNvMNtNtCsapfZL3txtKN_13identity_iota6client6clientNtB4_6Client16publish_document0Cskt00YjyhLiG_13identity_wasm
FNDA:0,_RINvNtNtCsapfZL3txtKN_13identity_iota6client6client15create_transferNtNtNtNtB6_3did3doc8document8DocumentECskt00YjyhLiG_13identity_wasm
FNDA:0,_RNvNtNtCsapfZL3txtKN_13identity_iota6client6client18___dbg_transactions
FNDA:0,_RNvMNtNtCsapfZL3txtKN_13identity_iota6client6clientNtB2_6Client13check_network
FNDA:0,_RNvMNtNtCsapfZL3txtKN_13identity_iota6client6clientNtB2_6Client12from_builder
FNDA:0,_RNCNvMNtNtCsapfZL3txtKN_13identity_iota6client6clientNtB4_6Client19read_document_chain0B8_
FNDA:0,_RNCNvMNtNtCsapfZL3txtKN_13identity_iota6client6clientNtB4_6Client13read_messages0B8_
FNF:8
FNH:0
DA:32,0
DA:60,0
DA:61,0
DA:62,0
DA:63,0
DA:64,0
DA:66,0
DA:67,0
DA:71,0
DA:74,0
DA:75,0
DA:77,0
DA:119,0
DA:120,0
DA:122,0
DA:124,0
DA:125,0
DA:126,0
DA:128,0
DA:129,0
DA:137,0
DA:138,0
DA:140,0
DA:142,0
DA:143,0
DA:144,0
DA:146,0
DA:147,0
DA:154,0
DA:155,0
DA:158,0
DA:159,0
DA:161,0
DA:163,0
DA:164,0
DA:167,0
DA:168,0
DA:170,0
DA:172,0
DA:175,0
DA:176,0
DA:180,0
DA:182,0
DA:185,0
DA:186,0
DA:187,0
DA:188,0
DA:189,0
DA:190,0
DA:192,0
DA:194,0
DA:195,0
DA:196,0
DA:199,0
DA:201,0
DA:203,0
DA:204,0
DA:205,0
DA:206,0
DA:207,0
DA:208,0
DA:209,0
DA:210,0
DA:211,0
DA:212,0
DA:215,0
DA:217,0
DA:218,0
DA:219,0
DA:220,0
DA:221,0
DA:222,0
DA:225,0
DA:226,0
DA:228,0
DA:229,0
DA:230,0
DA:231,0
DA:232,0
DA:233,0
DA:234,0
DA:237,0
DA:238,0
DA:239,0
DA:240,0
DA:242,0
DA:244,0
DA:245,0
DA:247,0
DA:249,0
DA:250,0
DA:251,0
BRF:0
BFH:0
LF:117
LH:0
end_of_record
SF:identity-iota/src/client/client_builder.rs
FN:9,_RNvXs0_NtNtCsapfZL3txtKN_13identity_iota6client14client_builderNtB5_13ClientBuilderNtNtCs4RZURTQcbNt_4core3fmt5Debug3fmt
FNDA:0,_RNvXs0_NtNtCsapfZL3txtKN_13identity_iota6client14client_builderNtB5_13ClientBuilderNtNtCs4RZURTQcbNt_4core3fmt5Debug3fmt
FNF:1
FNH:0
DA:9,0
DA:39,0
DA:40,0
DA:41,0
DA:42,0
BRF:0
BFH:0
LF:5
LH:0
end_of_record
SF:identity-iota/src/client/network.rs
FN:18,_RNvXsm_NtNtCs8WRqiRN7SZr_13identity_iota6client7networkNtB5_7NetworkNtNtCs4RZURTQcbNt_4core3fmt5Debug3fmt
FN:26,_RNvMNtNtCs8WRqiRN7SZr_13identity_iota6client7networkNtB2_7Network9from_name
FN:57,_RNvMNtNtCs8WRqiRN7SZr_13identity_iota6client7networkNtB2_7Network6as_str
FN:111,_RNvNtNtNtCs8WRqiRN7SZr_13identity_iota6client7network5testss_16test_matches_did
FN:103,_RNvNtNtNtCs8WRqiRN7SZr_13identity_iota6client7network5testss_14test_from_name
FN:18,_RNvXs0_NtNtCsapfZL3txtKN_13identity_iota6client7networkNtB5_7NetworkINtNtCs4RZURTQcbNt_4core7convert4FromRNtNtNtNtB9_3did3url3did3DIDE4from
FN:48,_RNvMNtNtCsapfZL3txtKN_13identity_iota6client7networkNtB2_7Network12explorer_url
FN:26,_RNvMNtNtCsapfZL3txtKN_13identity_iota6client7networkNtB2_7Network9from_name
FN:79,_RNvXs1_NtNtCsapfZL3txtKN_13identity_iota6client7networkNtB5_7NetworkINtNtCs4RZURTQcbNt_4core7convert4FromNtNtCs3ZTBN1WjtPD_11iota_client7builder7NetworkE4from
FN:39,_RNvMNtNtCsapfZL3txtKN_13identity_iota6client7networkNtB2_7Network8node_url
FN:57,_RNvMNtNtCsapfZL3txtKN_13identity_iota6client7networkNtB2_7Network6as_str
FN:89,_RNvXs2_NtNtCsapfZL3txtKN_13identity_iota6client7networkNtNtCs3ZTBN1WjtPD_11iota_client7builder7NetworkINtNtCs4RZURTQcbNt_4core7convert4FromNtB5_7NetworkE4from
FNDA:0,_RNvXsm_NtNtCs8WRqiRN7SZr_13identity_iota6client7networkNtB5_7NetworkNtNtCs4RZURTQcbNt_4core3fmt5Debug3fmt
FNDA:0,_RNvMNtNtCs8WRqiRN7SZr_13identity_iota6client7networkNtB2_7Network9from_name
FNDA:0,_RNvMNtNtCs8WRqiRN7SZr_13identity_iota6client7networkNtB2_7Network6as_str
FNDA:0,_RNvNtNtNtCs8WRqiRN7SZr_13identity_iota6client7network5testss_16test_matches_did
FNDA:0,_RNvNtNtNtCs8WRqiRN7SZr_13identity_iota6client7network5testss_14test_from_name
FNDA:0,_RNvXs0_NtNtCsapfZL3txtKN_13identity_iota6client7networkNtB5_7NetworkINtNtCs4RZURTQcbNt_4core7convert4FromRNtNtNtNtB9_3did3url3did3DIDE4from
FNDA:0,_RNvMNtNtCsapfZL3txtKN_13identity_iota6client7networkNtB2_7Network12explorer_url
FNDA:0,_RNvMNtNtCsapfZL3txtKN_13identity_iota6client7networkNtB2_7Network9from_name
FNDA:0,_RNvXs1_NtNtCsapfZL3txtKN_13identity_iota6client7networkNtB5_7NetworkINtNtCs4RZURTQcbNt_4core7convert4FromNtNtCs3ZTBN1WjtPD_11iota_client7builder7NetworkE4from
FNDA:0,_RNvMNtNtCsapfZL3txtKN_13identity_iota6client7networkNtB2_7Network8node_url
FNDA:0,_RNvMNtNtCsapfZL3txtKN_13identity_iota6client7networkNtB2_7Network6as_str
FNDA:0,_RNvXs2_NtNtCsapfZL3txtKN_13identity_iota6client7networkNtNtCs3ZTBN1WjtPD_11iota_client7builder7NetworkINtNtCs4RZURTQcbNt_4core7convert4FromNtB5_7NetworkE4from
FNF:9
FNH:0
DA:18,0
DA:26,0
DA:27,0
DA:28,0
DA:29,0
DA:30,0
DA:32,0
DA:39,0
DA:40,0
DA:41,0
DA:42,0
DA:43,0
DA:45,0
DA:48,0
DA:49,0
DA:50,0
DA:51,0
DA:52,0
DA:54,0
DA:57,0
DA:58,0
DA:59,0
DA:60,0
DA:61,0
DA:63,0
DA:67,0
DA:68,0
DA:69,0
DA:73,0
DA:74,0
DA:75,0
DA:79,0
DA:80,0
DA:81,0
DA:82,0
DA:83,0
DA:85,0
DA:89,0
DA:90,0
DA:91,0
DA:92,0
DA:93,0
DA:95,0
DA:103,0
DA:104,0
DA:105,0
DA:106,0
DA:107,0
DA:108,0
DA:111,0
DA:112,0
DA:113,0
DA:114,0
DA:115,0
DA:117,0
DA:118,0
DA:119,0
DA:120,0
DA:122,0
DA:123,0
DA:124,0
DA:125,0
DA:126,0
BRF:0
BFH:0
LF:87
LH:0
end_of_record
SF:identity-iota/src/client/resolver.rs
FN:26,_RNCNvXNtNtCsapfZL3txtKN_13identity_iota6client8resolverNtNtB6_6client6ClientNtNtNtCsdwuhiSxlwM7_12identity_did10resolution6traits14ResolverMethod4read0B8_
FN:20,_RNvXNtNtCsapfZL3txtKN_13identity_iota6client8resolverNtNtB4_6client6ClientNtNtNtCsdwuhiSxlwM7_12identity_did10resolution6traits14ResolverMethod12is_supported
FNDA:0,_RNCNvXNtNtCsapfZL3txtKN_13identity_iota6client8resolverNtNtB6_6client6ClientNtNtNtCsdwuhiSxlwM7_12identity_did10resolution6traits14ResolverMethod4read0B8_
FNDA:0,_RNvXNtNtCsapfZL3txtKN_13identity_iota6client8resolverNtNtB4_6client6ClientNtNtNtCsdwuhiSxlwM7_12identity_did10resolution6traits14ResolverMethod12is_supported
FNF:2
FNH:0
DA:20,0
DA:21,0
DA:22,0
DA:23,0
DA:24,0
DA:26,0
DA:27,0
DA:28,0
DA:29,0
DA:31,0
DA:33,0
DA:34,0
DA:35,0
DA:38,0
DA:39,0
DA:41,0
BRF:0
BFH:0
LF:16
LH:0
end_of_record
SF:identity-iota/src/credential/validator.rs
FN:125,_RNCINvMNtNtCsapfZL3txtKN_13identity_iota10credential9validatorNtB5_19CredentialValidator21validate_presentationINtNtNtNtCslaFPCg94Pel_5alloc11collections5btree3map8BTreeMapNtNtB1U_6string6StringNtNtCs1CNeFI220rp_10serde_json5value5ValueEB1L_E0Cskt00YjyhLiG_13identity_wasm
FN:69,_RNCINvMNtNtCsapfZL3txtKN_13identity_iota10credential9validatorNtB5_19CredentialValidator18check_presentationINtNtNtNtCslaFPCg94Pel_5alloc11collections5btree3map8BTreeMapNtNtB1R_6string6StringNtNtCs1CNeFI220rp_10serde_json5value5ValueEB1I_E0Cskt00YjyhLiG_13identity_wasm
FN:159,_RNCNvMNtNtCsapfZL3txtKN_13identity_iota10credential9validatorNtB4_19CredentialValidator17validate_document0Cskt00YjyhLiG_13identity_wasm
FN:59,_RNCINvMNtNtCsapfZL3txtKN_13identity_iota10credential9validatorNtB5_19CredentialValidator5checkINtNtNtNtCslaFPCg94Pel_5alloc11collections5btree3map8BTreeMapNtNtB1D_6string6StringNtNtCs1CNeFI220rp_10serde_json5value5ValueEE0Cskt00YjyhLiG_13identity_wasm
FN:80,_RNCINvMNtNtCsapfZL3txtKN_13identity_iota10credential9validatorNtB5_19CredentialValidator19validate_credentialINtNtNtNtCslaFPCg94Pel_5alloc11collections5btree3map8BTreeMapNtNtB1S_6string6StringNtNtCs1CNeFI220rp_10serde_json5value5ValueEE0Cskt00YjyhLiG_13identity_wasm
FN:18,_RNvXsb_NtNtCsapfZL3txtKN_13identity_iota10credential9validatorNtB5_19CredentialValidatorNtNtCs4RZURTQcbNt_4core3fmt5Debug3fmt
FNDA:0,_RNCINvMNtNtCsapfZL3txtKN_13identity_iota10credential9validatorNtB5_19CredentialValidator21validate_presentationINtNtNtNtCslaFPCg94Pel_5alloc11collections5btree3map8BTreeMapNtNtB1U_6string6StringNtNtCs1CNeFI220rp_10serde_json5value5ValueEB1L_E0Cskt00YjyhLiG_13identity_wasm
FNDA:0,_RNCINvMNtNtCsapfZL3txtKN_13identity_iota10credential9validatorNtB5_19CredentialValidator18check_presentationINtNtNtNtCslaFPCg94Pel_5alloc11collections5btree3map8BTreeMapNtNtB1R_6string6StringNtNtCs1CNeFI220rp_10serde_json5value5ValueEB1I_E0Cskt00YjyhLiG_13identity_wasm
FNDA:0,_RNCNvMNtNtCsapfZL3txtKN_13identity_iota10credential9validatorNtB4_19CredentialValidator17validate_document0Cskt00YjyhLiG_13identity_wasm
FNDA:0,_RNCINvMNtNtCsapfZL3txtKN_13identity_iota10credential9validatorNtB5_19CredentialValidator5checkINtNtNtNtCslaFPCg94Pel_5alloc11collections5btree3map8BTreeMapNtNtB1D_6string6StringNtNtCs1CNeFI220rp_10serde_json5value5ValueEE0Cskt00YjyhLiG_13identity_wasm
FNDA:0,_RNCINvMNtNtCsapfZL3txtKN_13identity_iota10credential9validatorNtB5_19CredentialValidator19validate_credentialINtNtNtNtCslaFPCg94Pel_5alloc11collections5btree3map8BTreeMapNtNtB1S_6string6StringNtNtCs1CNeFI220rp_10serde_json5value5ValueEE0Cskt00YjyhLiG_13identity_wasm
FNDA:0,_RNvXsb_NtNtCsapfZL3txtKN_13identity_iota10credential9validatorNtB5_19CredentialValidatorNtNtCs4RZURTQcbNt_4core3fmt5Debug3fmt
FNF:6
FNH:0
DA:18,0
DA:26,0
DA:34,0
DA:42,0
DA:55,0
DA:56,0
DA:57,0
DA:58,0
DA:59,0
DA:60,0
DA:64,0
DA:65,0
DA:66,0
DA:67,0
DA:68,0
DA:69,0
DA:70,0
DA:77,0
DA:78,0
DA:79,0
DA:80,0
DA:81,0
DA:82,0
DA:83,0
DA:85,0
DA:88,0
DA:89,0
DA:90,0
DA:91,0
DA:93,0
DA:97,0
DA:98,0
DA:99,0
DA:100,0
DA:103,0
DA:105,0
DA:106,0
DA:107,0
DA:108,0
DA:109,0
DA:110,0
DA:111,0
DA:117,0
DA:118,0
DA:119,0
DA:120,0
DA:121,0
DA:122,0
DA:123,0
DA:124,0
DA:125,0
DA:126,0
DA:127,0
DA:128,0
DA:129,0
DA:132,0
DA:134,0
DA:137,0
DA:138,0
DA:142,0
DA:143,0
DA:144,0
DA:145,0
DA:148,0
DA:150,0
DA:151,0
DA:152,0
DA:153,0
DA:154,0
DA:155,0
DA:156,0
DA:159,0
DA:160,0
DA:161,0
DA:162,0
DA:163,0
DA:164,0
DA:165,0
DA:166,0
DA:167,0
DA:168,0
DA:169,0
BRF:0
BFH:0
LF:139
LH:0
end_of_record
SF:identity-iota/src/did/doc/diff.rs
FN:23,_RNvXs0_NtNtNtCsapfZL3txtKN_13identity_iota3did3doc4diffNtB5_12DocumentDiffNtNtNtNtNtCsjQ7CiUSXMgx_13identity_core6crypto9signature6traits4data12TrySignature9signature
FN:34,_RNvMNtNtNtCsapfZL3txtKN_13identity_iota3did3doc4diffNtB2_12DocumentDiff3new
FN:70,_RNvMNtNtNtCsapfZL3txtKN_13identity_iota3did3doc4diffNtB2_12DocumentDiff5merge
FNDA:0,_RNvXs0_NtNtNtCsapfZL3txtKN_13identity_iota3did3doc4diffNtB5_12DocumentDiffNtNtNtNtNtCsjQ7CiUSXMgx_13identity_core6crypto9signature6traits4data12TrySignature9signature
FNDA:0,_RNvMNtNtNtCsapfZL3txtKN_13identity_iota3did3doc4diffNtB2_12DocumentDiff3new
FNDA:0,_RNvMNtNtNtCsapfZL3txtKN_13identity_iota3did3doc4diffNtB2_12DocumentDiff5merge
FNF:3
FNH:0
DA:23,0
DA:34,0
DA:35,0
DA:36,0
DA:37,0
DA:39,0
DA:40,0
DA:41,0
DA:42,0
DA:43,0
DA:44,0
DA:45,0
DA:46,0
DA:70,0
DA:71,0
DA:72,0
DA:73,0
DA:75,0
DA:76,0
DA:82,0
DA:83,0
DA:84,0
DA:85,0
DA:86,0
DA:89,0
DA:90,0
DA:91,0
DA:92,0
DA:96,0
DA:97,0
DA:98,0
DA:99,0
DA:121,0
DA:122,0
DA:123,0
BRF:0
BFH:0
LF:35
LH:0
end_of_record
SF:identity-iota/src/did/doc/document.rs
FN:103,_RNvMNtNtNtCsapfZL3txtKN_13identity_iota3did3doc8documentNtB2_8Document13try_from_core
FN:52,_RNvXs2_NtNtNtCsapfZL3txtKN_13identity_iota3did3doc8documentNtB5_8DocumentINtNtCs4RZURTQcbNt_4core7convert4FromINtNtNtCsdwuhiSxlwM7_12identity_did8document8document8DocumentINtNtNtB1R_10verifiable10properties10PropertiesNtNtB7_10properties10PropertiesEINtNtNtNtCslaFPCg94Pel_5alloc11collections5btree3map8BTreeMapNtNtB4a_6string6StringNtNtCs1CNeFI220rp_10serde_json5value5ValueEuEE4from
FN:387,_RNvMNtNtNtCsapfZL3txtKN_13identity_iota3did3doc8documentNtB2_8Document12diff_address
FN:76,_RNvMNtNtNtCsapfZL3txtKN_13identity_iota3did3doc8documentNtB2_8Document19from_authentication
FN:245,_RNvMNtNtNtCsapfZL3txtKN_13identity_iota3did3doc8documentNtB2_8Document13remove_method
FN:352,_RNvMNtNtNtCsapfZL3txtKN_13identity_iota3did3doc8documentNtB2_8Document5merge
FN:126,_RNvMNtNtNtCsapfZL3txtKN_13identity_iota3did3doc8documentNtB2_8Document20check_authentication
FN:67,_RNvMNtNtNtCsapfZL3txtKN_13identity_iota3did3doc8documentNtB2_8Document12from_keypair
FN:335,_RNvMNtNtNtCsapfZL3txtKN_13identity_iota3did3doc8documentNtB2_8Document4diff
FNDA:0,_RNvMNtNtNtCsapfZL3txtKN_13identity_iota3did3doc8documentNtB2_8Document13try_from_core
FNDA:0,_RNvXs2_NtNtNtCsapfZL3txtKN_13identity_iota3did3doc8documentNtB5_8DocumentINtNtCs4RZURTQcbNt_4core7convert4FromINtNtNtCsdwuhiSxlwM7_12identity_did8document8document8DocumentINtNtNtB1R_10verifiable10properties10PropertiesNtNtB7_10properties10PropertiesEINtNtNtNtCslaFPCg94Pel_5alloc11collections5btree3map8BTreeMapNtNtB4a_6string6StringNtNtCs1CNeFI220rp_10serde_json5value5ValueEuEE4from
FNDA:0,_RNvMNtNtNtCsapfZL3txtKN_13identity_iota3did3doc8documentNtB2_8Document12diff_address
FNDA:0,_RNvMNtNtNtCsapfZL3txtKN_13identity_iota3did3doc8documentNtB2_8Document19from_authentication
FNDA:0,_RNvMNtNtNtCsapfZL3txtKN_13identity_iota3did3doc8documentNtB2_8Document13remove_method
FNDA:0,_RNvMNtNtNtCsapfZL3txtKN_13identity_iota3did3doc8documentNtB2_8Document5merge
FNDA:0,_RNvMNtNtNtCsapfZL3txtKN_13identity_iota3did3doc8documentNtB2_8Document20check_authentication
FNDA:0,_RNvMNtNtNtCsapfZL3txtKN_13identity_iota3did3doc8documentNtB2_8Document12from_keypair
FNDA:0,_RNvMNtNtNtCsapfZL3txtKN_13identity_iota3did3doc8documentNtB2_8Document4diff
FNF:9
FNH:0
DA:52,0
DA:67,0
DA:68,0
DA:71,0
DA:72,0
DA:76,0
DA:79,0
DA:80,0
DA:103,0
DA:104,0
DA:106,0
DA:107,0
DA:108,0
DA:109,0
DA:110,0
DA:112,0
DA:115,0
DA:116,0
DA:117,0
DA:120,0
DA:123,0
DA:126,0
DA:129,0
DA:130,0
DA:131,0
DA:132,0
DA:135,0
DA:136,0
DA:245,0
DA:246,0
DA:247,0
DA:248,0
DA:249,0
DA:250,0
DA:251,0
DA:252,0
DA:253,0
DA:256,0
DA:257,0
DA:258,0
DA:259,0
DA:260,0
DA:261,0
DA:335,0
DA:336,0
DA:338,0
DA:340,0
DA:341,0
DA:352,0
DA:354,0
DA:356,0
DA:357,0
DA:367,0
DA:368,0
DA:369,0
DA:370,0
DA:371,0
DA:374,0
DA:375,0
DA:376,0
DA:377,0
DA:381,0
DA:382,0
DA:383,0
DA:384,0
DA:387,0
DA:388,0
DA:389,0
DA:390,0
DA:391,0
DA:392,0
DA:393,0
DA:394,0
DA:395,0
DA:396,0
DA:397,0
DA:421,0
DA:422,0
DA:423,0
DA:424,0
DA:425,0
DA:426,0
BRF:0
BFH:0
LF:82
LH:0
end_of_record
SF:identity-iota/src/did/doc/method.rs
FN:58,_RINvMNtNtNtCsapfZL3txtKN_13identity_iota3did3doc6methodNtB3_6Method12from_keypairINtNtCs4RZURTQcbNt_4core6option6OptionReEECskt00YjyhLiG_13identity_wasm
FN:39,_RINvMNtNtNtCsapfZL3txtKN_13identity_iota3did3doc6methodNtB3_6Method17create_merkle_keyNtNtCsfaahmxv2G8K_4sha26sha2566Sha256INtNtCs4RZURTQcbNt_4core6option6OptionReEECskt00YjyhLiG_13identity_wasm
FN:69,_RINvMNtNtNtCsapfZL3txtKN_13identity_iota3did3doc6methodNtB3_6Method8from_didINtNtCs4RZURTQcbNt_4core6option6OptionReEECskt00YjyhLiG_13identity_wasm
FN:69,_RINvMNtNtNtCsapfZL3txtKN_13identity_iota3did3doc6methodNtB3_6Method8from_didReEB9_
FN:58,_RINvMNtNtNtCsapfZL3txtKN_13identity_iota3did3doc6methodNtB3_6Method12from_keypairReEB9_
FN:94,_RNvMNtNtNtCsapfZL3txtKN_13identity_iota3did3doc6methodNtB2_6Method13try_from_core
FN:29,_RNvXs5_NtNtNtCsapfZL3txtKN_13identity_iota3did3doc6methodNtB5_6MethodNtNtNtCsdwuhiSxlwM7_12identity_did10verifiable6traits10Revocation10revocation
FN:102,_RNvMNtNtNtCsapfZL3txtKN_13identity_iota3did3doc6methodNtB2_6Method12try_from_mut
FN:127,_RNvMNtNtNtCsapfZL3txtKN_13identity_iota3did3doc6methodNtB2_6Method14check_validity
FN:163,_RNvMNtNtNtCsapfZL3txtKN_13identity_iota3did3doc6methodNtB2_6Method17revoke_merkle_key
FNDA:0,_RINvMNtNtNtCsapfZL3txtKN_13identity_iota3did3doc6methodNtB3_6Method12from_keypairINtNtCs4RZURTQcbNt_4core6option6OptionReEECskt00YjyhLiG_13identity_wasm
FNDA:0,_RINvMNtNtNtCsapfZL3txtKN_13identity_iota3did3doc6methodNtB3_6Method17create_merkle_keyNtNtCsfaahmxv2G8K_4sha26sha2566Sha256INtNtCs4RZURTQcbNt_4core6option6OptionReEECskt00YjyhLiG_13identity_wasm
FNDA:0,_RINvMNtNtNtCsapfZL3txtKN_13identity_iota3did3doc6methodNtB3_6Method8from_didINtNtCs4RZURTQcbNt_4core6option6OptionReEECskt00YjyhLiG_13identity_wasm
FNDA:0,_RINvMNtNtNtCsapfZL3txtKN_13identity_iota3did3doc6methodNtB3_6Method8from_didReEB9_
FNDA:0,_RINvMNtNtNtCsapfZL3txtKN_13identity_iota3did3doc6methodNtB3_6Method12from_keypairReEB9_
FNDA:0,_RNvMNtNtNtCsapfZL3txtKN_13identity_iota3did3doc6methodNtB2_6Method13try_from_core
FNDA:0,_RNvXs5_NtNtNtCsapfZL3txtKN_13identity_iota3did3doc6methodNtB5_6MethodNtNtNtCsdwuhiSxlwM7_12identity_did10verifiable6traits10Revocation10revocation
FNDA:0,_RNvMNtNtNtCsapfZL3txtKN_13identity_iota3did3doc6methodNtB2_6Method12try_from_mut
FNDA:0,_RNvMNtNtNtCsapfZL3txtKN_13identity_iota3did3doc6methodNtB2_6Method14check_validity
FNDA:0,_RNvMNtNtNtCsapfZL3txtKN_13identity_iota3did3doc6methodNtB2_6Method17revoke_merkle_key
FNF:8
FNH:0
DA:29,0
DA:39,0
DA:40,0
DA:41,0
DA:42,0
DA:43,0
DA:44,0
DA:45,0
DA:47,0
DA:48,0
DA:49,0
DA:50,0
DA:51,0
DA:52,0
DA:53,0
DA:54,0
DA:55,0
DA:58,0
DA:59,0
DA:60,0
DA:61,0
DA:62,0
DA:63,0
DA:65,0
DA:66,0
DA:69,0
DA:70,0
DA:71,0
DA:72,0
DA:73,0
DA:74,0
DA:76,0
DA:77,0
DA:78,0
DA:79,0
DA:80,0
DA:81,0
DA:82,0
DA:85,0
DA:86,0
DA:94,0
DA:96,0
DA:97,0
DA:102,0
DA:105,0
DA:106,0
DA:127,0
DA:128,0
DA:131,0
DA:132,0
DA:133,0
DA:134,0
DA:135,0
DA:136,0
DA:137,0
DA:138,0
DA:139,0
DA:140,0
DA:141,0
DA:142,0
DA:163,0
DA:164,0
DA:165,0
DA:166,0
DA:168,0
DA:169,0
DA:170,0
DA:172,0
DA:173,0
DA:174,0
DA:175,0
DA:177,0
DA:178,0
DA:222,0
DA:223,0
DA:224,0
BRF:0
BFH:0
LF:92
LH:0
end_of_record
SF:identity-iota/src/did/doc/properties.rs
FN:10,_RNvXs0_NvXNvNtNtNtCsapfZL3txtKN_13identity_iota3did3doc10propertiess_1__NtBa_10PropertiesNtNtCsbmAr7Tf4vl1_5serde2de11Deserialize11deserializeNtB5_9___VisitorNtB1r_7Visitor9expecting
FNDA:0,_RNvXs0_NvXNvNtNtNtCsapfZL3txtKN_13identity_iota3did3doc10propertiess_1__NtBa_10PropertiesNtNtCsbmAr7Tf4vl1_5serde2de11Deserialize11deserializeNtB5_9___VisitorNtB1r_7Visitor9expecting
FNF:1
FNH:0
DA:10,0
BRF:0
BFH:0
LF:1
LH:0
end_of_record
SF:identity-iota/src/did/url/did.rs
FN:404,_RNvNtNtNtNtCs8WRqiRN7SZr_13identity_iota3did3url3did5testss_17test_with_network
FN:318,_RNvNtNtNtNtCs8WRqiRN7SZr_13identity_iota3did3url3did5testss_16test_parse_valid
FN:328,_RNvNtNtNtNtCs8WRqiRN7SZr_13identity_iota3did3url3did5testss_18test_parse_invalid
FN:350,_RNvNtNtNtNtCs8WRqiRN7SZr_13identity_iota3did3url3did5testss_12test_network
FN:415,_RNvNtNtNtNtCs8WRqiRN7SZr_13identity_iota3did3url3did5testss_27test_with_network_and_shard
FN:336,_RNvNtNtNtNtCs8WRqiRN7SZr_13identity_iota3did3url3did5testss_13test_from_did
FN:364,_RNvNtNtNtNtCs8WRqiRN7SZr_13identity_iota3did3url3did5testss_10test_shard
FN:375,_RNvNtNtNtNtCs8WRqiRN7SZr_13identity_iota3did3url3did5testss_8test_tag
FN:393,_RNvNtNtNtNtCs8WRqiRN7SZr_13identity_iota3did3url3did5testss_8test_new
FN:426,_RNvNtNtNtNtCs8WRqiRN7SZr_13identity_iota3did3url3did5testss_14test_normalize
FN:387,_RNvNtNtNtNtCs8WRqiRN7SZr_13identity_iota3did3url3did5testss_12test_address
FN:30,_RNvXs6_NtNtNtCs8WRqiRN7SZr_13identity_iota3did3url3didNtB5_3DIDNtNtNtCs4RZURTQcbNt_4core3str6traits7FromStr8from_str
FN:167,_RNvMNtNtNtCs8WRqiRN7SZr_13identity_iota3did3url3didNtB2_3DID15check_method_id
FN:63,_RNvMNtNtNtCs8WRqiRN7SZr_13identity_iota3did3url3didNtB2_3DID14try_from_owned
FN:231,_RNvMNtNtNtCs8WRqiRN7SZr_13identity_iota3did3url3didNtB2_3DID9normalize
FN:192,_RNvMNtNtNtCs8WRqiRN7SZr_13identity_iota3did3url3didNtB2_3DID14check_validity
FN:154,_RNvMNtNtNtCs8WRqiRN7SZr_13identity_iota3did3url3didNtB2_3DID12check_method
FN:30,_RNvXs0_NtNtNtCsapfZL3txtKN_13identity_iota3did3url3didNtB5_3DIDNtNtCs4RZURTQcbNt_4core3fmt5Debug3fmt
FN:167,_RNvMNtNtNtCsapfZL3txtKN_13identity_iota3did3url3didNtB2_3DID15check_method_id
FN:116,_RNvMNtNtNtCsapfZL3txtKN_13identity_iota3did3url3didNtB2_3DID15from_components
FN:63,_RNvMNtNtNtCsapfZL3txtKN_13identity_iota3did3url3didNtB2_3DID14try_from_owned
FN:51,_RNvMNtNtNtCsapfZL3txtKN_13identity_iota3did3url3didNtB2_3DID17try_from_borrowed
FN:154,_RNvMNtNtNtCsapfZL3txtKN_13identity_iota3did3url3didNtB2_3DID12check_method
FN:231,_RNvMNtNtNtCsapfZL3txtKN_13identity_iota3did3url3didNtB2_3DID9normalize
FN:192,_RNvMNtNtNtCsapfZL3txtKN_13identity_iota3did3url3didNtB2_3DID14check_validity
FNDA:0,_RNvNtNtNtNtCs8WRqiRN7SZr_13identity_iota3did3url3did5testss_17test_with_network
FNDA:0,_RNvNtNtNtNtCs8WRqiRN7SZr_13identity_iota3did3url3did5testss_16test_parse_valid
FNDA:0,_RNvNtNtNtNtCs8WRqiRN7SZr_13identity_iota3did3url3did5testss_18test_parse_invalid
FNDA:0,_RNvNtNtNtNtCs8WRqiRN7SZr_13identity_iota3did3url3did5testss_12test_network
FNDA:0,_RNvNtNtNtNtCs8WRqiRN7SZr_13identity_iota3did3url3did5testss_27test_with_network_and_shard
FNDA:0,_RNvNtNtNtNtCs8WRqiRN7SZr_13identity_iota3did3url3did5testss_13test_from_did
FNDA:0,_RNvNtNtNtNtCs8WRqiRN7SZr_13identity_iota3did3url3did5testss_10test_shard
FNDA:0,_RNvNtNtNtNtCs8WRqiRN7SZr_13identity_iota3did3url3did5testss_8test_tag
FNDA:0,_RNvNtNtNtNtCs8WRqiRN7SZr_13identity_iota3did3url3did5testss_8test_new
FNDA:0,_RNvNtNtNtNtCs8WRqiRN7SZr_13identity_iota3did3url3did5testss_14test_normalize
FNDA:0,_RNvNtNtNtNtCs8WRqiRN7SZr_13identity_iota3did3url3did5testss_12test_address
FNDA:0,_RNvXs6_NtNtNtCs8WRqiRN7SZr_13identity_iota3did3url3didNtB5_3DIDNtNtNtCs4RZURTQcbNt_4core3str6traits7FromStr8from_str
FNDA:0,_RNvMNtNtNtCs8WRqiRN7SZr_13identity_iota3did3url3didNtB2_3DID15check_method_id
FNDA:0,_RNvMNtNtNtCs8WRqiRN7SZr_13identity_iota3did3url3didNtB2_3DID14try_from_owned
FNDA:0,_RNvMNtNtNtCs8WRqiRN7SZr_13identity_iota3did3url3didNtB2_3DID9normalize
FNDA:0,_RNvMNtNtNtCs8WRqiRN7SZr_13identity_iota3did3url3didNtB2_3DID14check_validity
FNDA:0,_RNvMNtNtNtCs8WRqiRN7SZr_13identity_iota3did3url3didNtB2_3DID12check_method
FNDA:0,_RNvXs0_NtNtNtCsapfZL3txtKN_13identity_iota3did3url3didNtB5_3DIDNtNtCs4RZURTQcbNt_4core3fmt5Debug3fmt
FNDA:0,_RNvMNtNtNtCsapfZL3txtKN_13identity_iota3did3url3didNtB2_3DID15check_method_id
FNDA:0,_RNvMNtNtNtCsapfZL3txtKN_13identity_iota3did3url3didNtB2_3DID15from_components
FNDA:0,_RNvMNtNtNtCsapfZL3txtKN_13identity_iota3did3url3didNtB2_3DID14try_from_owned
FNDA:0,_RNvMNtNtNtCsapfZL3txtKN_13identity_iota3did3url3didNtB2_3DID17try_from_borrowed
FNDA:0,_RNvMNtNtNtCsapfZL3txtKN_13identity_iota3did3url3didNtB2_3DID12check_method
FNDA:0,_RNvMNtNtNtCsapfZL3txtKN_13identity_iota3did3url3didNtB2_3DID9normalize
FNDA:0,_RNvMNtNtNtCsapfZL3txtKN_13identity_iota3did3url3didNtB2_3DID14check_validity
FNF:20
FNH:0
DA:30,0
DA:51,0
DA:54,0
DA:55,0
DA:63,0
DA:65,0
DA:66,0
DA:74,0
DA:75,0
DA:76,0
DA:77,0
DA:116,0
DA:117,0
DA:118,0
DA:119,0
DA:120,0
DA:121,0
DA:123,0
DA:130,0
DA:131,0
DA:132,0
DA:135,0
DA:136,0
DA:137,0
DA:140,0
DA:141,0
DA:142,0
DA:145,0
DA:146,0
DA:147,0
DA:154,0
DA:155,0
DA:156,0
DA:158,0
DA:160,0
DA:167,0
DA:168,0
DA:170,0
DA:171,0
DA:172,0
DA:173,0
DA:174,0
DA:175,0
DA:176,0
DA:178,0
DA:179,0
DA:181,0
DA:183,0
DA:192,0
DA:193,0
DA:195,0
DA:196,0
DA:200,0
DA:201,0
DA:202,0
DA:231,0
DA:232,0
DA:234,0
DA:235,0
DA:236,0
DA:237,0
DA:239,0
DA:240,0
DA:250,0
DA:251,0
DA:252,0
DA:256,0
DA:257,0
DA:258,0
DA:276,0
DA:277,0
DA:278,0
DA:284,0
DA:285,0
DA:286,0
DA:292,0
DA:293,0
DA:294,0
DA:300,0
DA:301,0
DA:302,0
DA:318,0
DA:319,0
DA:320,0
DA:321,0
DA:322,0
DA:323,0
DA:324,0
DA:325,0
DA:328,0
DA:329,0
DA:330,0
DA:331,0
DA:332,0
DA:333,0
DA:336,0
DA:337,0
DA:338,0
DA:339,0
DA:340,0
DA:342,0
DA:343,0
DA:345,0
DA:346,0
DA:347,0
DA:350,0
DA:351,0
DA:352,0
DA:353,0
DA:354,0
DA:356,0
DA:357,0
DA:359,0
DA:360,0
DA:361,0
DA:364,0
DA:365,0
DA:366,0
DA:367,0
DA:368,0
DA:370,0
DA:371,0
DA:372,0
DA:375,0
DA:376,0
DA:377,0
DA:379,0
DA:380,0
DA:382,0
DA:383,0
DA:384,0
DA:387,0
DA:388,0
DA:389,0
DA:390,0
DA:393,0
DA:394,0
DA:395,0
DA:396,0
DA:398,0
DA:399,0
DA:400,0
DA:401,0
DA:404,0
DA:405,0
DA:406,0
DA:407,0
DA:409,0
DA:410,0
DA:411,0
DA:412,0
DA:415,0
DA:416,0
DA:417,0
DA:418,0
DA:420,0
DA:421,0
DA:422,0
DA:423,0
DA:426,0
DA:427,0
DA:428,0
DA:429,0
DA:430,0
DA:431,0
DA:432,0
DA:433,0
DA:434,0
DA:435,0
DA:436,0
DA:437,0
DA:439,0
DA:440,0
BRF:0
BFH:0
LF:187
LH:0
end_of_record
SF:identity-iota/src/did/url/segments.rs
FN:53,_RNvMNtNtNtCs8WRqiRN7SZr_13identity_iota3did3url8segmentsNtB2_8Segments3tag
FN:45,_RNvMNtNtNtCs8WRqiRN7SZr_13identity_iota3did3url8segmentsNtB2_8Segments5shard
FN:37,_RNvMNtNtNtCs8WRqiRN7SZr_13identity_iota3did3url8segmentsNtB2_8Segments7network
FN:45,_RNvMNtNtNtCsapfZL3txtKN_13identity_iota3did3url8segmentsNtB2_8Segments5shard
FN:29,_RNvMNtNtNtCsapfZL3txtKN_13identity_iota3did3url8segmentsNtB2_8Segments18is_default_network
FN:53,_RNvMNtNtNtCsapfZL3txtKN_13identity_iota3did3url8segmentsNtB2_8Segments3tag
FN:37,_RNvMNtNtNtCsapfZL3txtKN_13identity_iota3did3url8segmentsNtB2_8Segments7network
FNDA:0,_RNvMNtNtNtCs8WRqiRN7SZr_13identity_iota3did3url8segmentsNtB2_8Segments3tag
FNDA:0,_RNvMNtNtNtCs8WRqiRN7SZr_13identity_iota3did3url8segmentsNtB2_8Segments5shard
FNDA:0,_RNvMNtNtNtCs8WRqiRN7SZr_13identity_iota3did3url8segmentsNtB2_8Segments7network
FNDA:0,_RNvMNtNtNtCsapfZL3txtKN_13identity_iota3did3url8segmentsNtB2_8Segments5shard
FNDA:0,_RNvMNtNtNtCsapfZL3txtKN_13identity_iota3did3url8segmentsNtB2_8Segments18is_default_network
FNDA:0,_RNvMNtNtNtCsapfZL3txtKN_13identity_iota3did3url8segmentsNtB2_8Segments3tag
FNDA:0,_RNvMNtNtNtCsapfZL3txtKN_13identity_iota3did3url8segmentsNtB2_8Segments7network
FNF:4
FNH:0
DA:29,0
DA:30,0
DA:31,0
DA:32,0
DA:33,0
DA:35,0
DA:37,0
DA:38,0
DA:39,0
DA:40,0
DA:41,0
DA:43,0
DA:45,0
DA:46,0
DA:47,0
DA:48,0
DA:49,0
DA:51,0
DA:53,0
DA:54,0
DA:55,0
DA:56,0
DA:57,0
DA:59,0
BRF:0
BFH:0
LF:24
LH:0
end_of_record
SF:identity-iota/src/tangle/message.rs
FN:51,_RNvMNtNtCsapfZL3txtKN_13identity_iota6tangle7messageNtB2_7Message15try_from_bundle
FNDA:0,_RNvMNtNtCsapfZL3txtKN_13identity_iota6tangle7messageNtB2_7Message15try_from_bundle
FNF:1
FNH:0
DA:51,0
DA:52,0
DA:53,0
DA:54,0
DA:55,0
DA:57,0
DA:58,0
DA:59,0
DA:60,0
DA:62,0
DA:63,0
DA:64,0
DA:65,0
DA:66,0
DA:67,0
DA:68,0
BRF:0
BFH:0
LF:16
LH:0
end_of_record
SF:identity-iota/src/tangle/message_id.rs
FN:9,_RNvXs_NtNtCs8WRqiRN7SZr_13identity_iota6tangle10message_idNtB4_9MessageIdNtNtCs4RZURTQcbNt_4core3fmt5Debug3fmt
FN:33,_RNvMNtNtCs8WRqiRN7SZr_13identity_iota6tangle10message_idNtB2_9MessageId7is_some
FN:78,_RNvNtNtCs8WRqiRN7SZr_13identity_iota6tangle10message_id12maybe_trytes
FN:29,_RNvMNtNtCs8WRqiRN7SZr_13identity_iota6tangle10message_idNtB2_9MessageId7is_none
FN:16,_RINvMNtNtCs8WRqiRN7SZr_13identity_iota6tangle10message_idNtB3_9MessageId3newNtNtCslaFPCg94Pel_5alloc6string6StringEB7_
FN:16,_RINvMNtNtCs8WRqiRN7SZr_13identity_iota6tangle10message_idNtB3_9MessageId3newReEB7_
FN:70,_RNvXs3_NtNtCs8WRqiRN7SZr_13identity_iota6tangle10message_idNtB5_9MessageIdINtNtCs4RZURTQcbNt_4core3cmp9PartialEqReE2eqB9_
FN:92,_RNvNtNtNtCs8WRqiRN7SZr_13identity_iota6tangle10message_id5testss_8test_new
FN:16,_RINvMNtNtCsapfZL3txtKN_13identity_iota6tangle10message_idNtB3_9MessageId3newNtNtCslaFPCg94Pel_5alloc6string6StringEB7_
FN:9,_RNvMNtNtCsapfZL3txtKN_13identity_iota6tangle10message_idNtB2_9MessageId7is_some
FN:29,_RNvMNtNtCsapfZL3txtKN_13identity_iota6tangle10message_idNtB2_9MessageId7is_none
FN:78,_RNvNtNtCsapfZL3txtKN_13identity_iota6tangle10message_id12maybe_trytes
FNDA:0,_RNvXs_NtNtCs8WRqiRN7SZr_13identity_iota6tangle10message_idNtB4_9MessageIdNtNtCs4RZURTQcbNt_4core3fmt5Debug3fmt
FNDA:0,_RNvMNtNtCs8WRqiRN7SZr_13identity_iota6tangle10message_idNtB2_9MessageId7is_some
FNDA:0,_RNvNtNtCs8WRqiRN7SZr_13identity_iota6tangle10message_id12maybe_trytes
FNDA:0,_RNvMNtNtCs8WRqiRN7SZr_13identity_iota6tangle10message_idNtB2_9MessageId7is_none
FNDA:0,_RINvMNtNtCs8WRqiRN7SZr_13identity_iota6tangle10message_idNtB3_9MessageId3newNtNtCslaFPCg94Pel_5alloc6string6StringEB7_
FNDA:0,_RINvMNtNtCs8WRqiRN7SZr_13identity_iota6tangle10message_idNtB3_9MessageId3newReEB7_
FNDA:0,_RNvXs3_NtNtCs8WRqiRN7SZr_13identity_iota6tangle10message_idNtB5_9MessageIdINtNtCs4RZURTQcbNt_4core3cmp9PartialEqReE2eqB9_
FNDA:0,_RNvNtNtNtCs8WRqiRN7SZr_13identity_iota6tangle10message_id5testss_8test_new
FNDA:0,_RINvMNtNtCsapfZL3txtKN_13identity_iota6tangle10message_idNtB3_9MessageId3newNtNtCslaFPCg94Pel_5alloc6string6StringEB7_
FNDA:0,_RNvMNtNtCsapfZL3txtKN_13identity_iota6tangle10message_idNtB2_9MessageId7is_some
FNDA:0,_RNvMNtNtCsapfZL3txtKN_13identity_iota6tangle10message_idNtB2_9MessageId7is_none
FNDA:0,_RNvNtNtCsapfZL3txtKN_13identity_iota6tangle10message_id12maybe_trytes
FNF:7
FNH:0
DA:9,0
DA:16,0
DA:17,0
DA:18,0
DA:19,0
DA:20,0
DA:21,0
DA:22,0
DA:23,0
DA:25,0
DA:27,0
DA:29,0
DA:30,0
DA:31,0
DA:33,0
DA:34,0
DA:35,0
DA:37,0
DA:38,0
DA:39,0
DA:43,0
DA:44,0
DA:45,0
DA:49,0
DA:50,0
DA:51,0
DA:55,0
DA:56,0
DA:57,0
DA:61,0
DA:62,0
DA:63,0
DA:70,0
DA:71,0
DA:72,0
DA:73,0
DA:75,0
DA:78,0
DA:79,0
DA:80,0
DA:81,0
DA:82,0
DA:83,0
DA:84,0
DA:92,0
DA:94,0
DA:95,0
DA:98,0
DA:99,0
DA:100,0
DA:101,0
DA:102,0
DA:103,0
BRF:0
BFH:0
LF:53
LH:0
end_of_record
SF:identity-iota/src/tangle/message_index.rs
FN:36,_RINvMNtNtCs8WRqiRN7SZr_13identity_iota6tangle13message_indexINtB3_12MessageIndexNtNtB3_5tests4CaseE12remove_whereNtNtB5_10message_id9MessageIdNCNvB1i_s_17test_remove_where0EB7_
FN:36,_RINvMNtNtCs8WRqiRN7SZr_13identity_iota6tangle13message_indexINtB3_12MessageIndexNtNtB3_5tests4CaseE12remove_whereNtNtB5_10message_id9MessageIdNCNvB1i_s_17test_remove_wheres0_0EB7_
FN:36,_RINvMNtNtCs8WRqiRN7SZr_13identity_iota6tangle13message_indexINtB3_12MessageIndexNtNtB3_5tests4CaseE12remove_whereNtNtB5_10message_id9MessageIdNCNvB1i_s_17test_remove_wheres1_0EB7_
FN:36,_RINvMNtNtCs8WRqiRN7SZr_13identity_iota6tangle13message_indexINtB3_12MessageIndexNtNtB3_5tests4CaseE12remove_whereNtNtB5_10message_id9MessageIdNCNvB1i_s_17test_remove_wheres_0EB7_
FN:48,_RNvMs_NtNtCs8WRqiRN7SZr_13identity_iota6tangle13message_indexINtB4_12MessageIndexNtNtB4_5tests4CaseE6insertB8_
FN:58,_RINvMs_NtNtCs8WRqiRN7SZr_13identity_iota6tangle13message_indexINtB5_12MessageIndexNtNtB5_5tests4CaseE6extendINtNtCslaFPCg94Pel_5alloc3vec3VecB1i_EEB9_
FN:163,_RNvNtNtNtCs8WRqiRN7SZr_13identity_iota6tangle13message_index5testss_10test_works
FN:175,_RNvNtNtNtCs8WRqiRN7SZr_13identity_iota6tangle13message_index5testss_17test_remove_where
FN:15,_RNvXs_NtNtNtCs8WRqiRN7SZr_13identity_iota6tangle13message_index5testsNtB4_4CaseNtNtB8_6traits9TangleRef19previous_message_id
FN:48,_RNvMs_NtNtCsapfZL3txtKN_13identity_iota6tangle13message_indexINtB4_12MessageIndexNtNtNtNtB8_3did3doc4diff12DocumentDiffE6insertB8_
FN:48,_RNvMs_NtNtCsapfZL3txtKN_13identity_iota6tangle13message_indexINtB4_12MessageIndexNtNtNtNtB8_3did3doc8document8DocumentE6insertB8_
FN:58,_RINvMs_NtNtCsapfZL3txtKN_13identity_iota6tangle13message_indexINtB5_12MessageIndexNtNtNtNtB9_3did3doc4diff12DocumentDiffE6extendINtNtNtNtCs4RZURTQcbNt_4core4iter8adapters7flatten7FlatMapINtNtNtB2b_5slice4iter4IterNtNtB7_7message7MessageEINtNtB2b_6option6OptionB1i_ENCNvMNtNtB9_5chain4diffNtB4k_9DiffChain17try_from_messages0EEB9_
FN:36,_RINvMNtNtCsapfZL3txtKN_13identity_iota6tangle13message_indexINtB3_12MessageIndexNtNtNtNtB7_3did3doc8document8DocumentE12remove_whereNtNtB5_10message_id9MessageIdNCNvMNtNtB7_5chain4authNtB2E_9AuthChain17try_from_messagess_0EB7_
FN:58,_RINvMs_NtNtCsapfZL3txtKN_13identity_iota6tangle13message_indexINtB5_12MessageIndexNtNtNtNtB9_3did3doc8document8DocumentE6extendINtNtNtNtCs4RZURTQcbNt_4core4iter8adapters7flatten7FlatMapINtNtNtB2a_5slice4iter4IterNtNtB7_7message7MessageEINtNtB2a_6option6OptionB1i_ENCNvMNtNtB9_5chain4authNtB4j_9AuthChain17try_from_messages0EEB9_
FNDA:0,_RINvMNtNtCs8WRqiRN7SZr_13identity_iota6tangle13message_indexINtB3_12MessageIndexNtNtB3_5tests4CaseE12remove_whereNtNtB5_10message_id9MessageIdNCNvB1i_s_17test_remove_where0EB7_
FNDA:0,_RINvMNtNtCs8WRqiRN7SZr_13identity_iota6tangle13message_indexINtB3_12MessageIndexNtNtB3_5tests4CaseE12remove_whereNtNtB5_10message_id9MessageIdNCNvB1i_s_17test_remove_wheres0_0EB7_
FNDA:0,_RINvMNtNtCs8WRqiRN7SZr_13identity_iota6tangle13message_indexINtB3_12MessageIndexNtNtB3_5tests4CaseE12remove_whereNtNtB5_10message_id9MessageIdNCNvB1i_s_17test_remove_wheres1_0EB7_
FNDA:0,_RINvMNtNtCs8WRqiRN7SZr_13identity_iota6tangle13message_indexINtB3_12MessageIndexNtNtB3_5tests4CaseE12remove_whereNtNtB5_10message_id9MessageIdNCNvB1i_s_17test_remove_wheres_0EB7_
FNDA:0,_RNvMs_NtNtCs8WRqiRN7SZr_13identity_iota6tangle13message_indexINtB4_12MessageIndexNtNtB4_5tests4CaseE6insertB8_
FNDA:0,_RINvMs_NtNtCs8WRqiRN7SZr_13identity_iota6tangle13message_indexINtB5_12MessageIndexNtNtB5_5tests4CaseE6extendINtNtCslaFPCg94Pel_5alloc3vec3VecB1i_EEB9_
FNDA:0,_RNvNtNtNtCs8WRqiRN7SZr_13identity_iota6tangle13message_index5testss_10test_works
FNDA:0,_RNvNtNtNtCs8WRqiRN7SZr_13identity_iota6tangle13message_index5testss_17test_remove_where
FNDA:0,_RNvXs_NtNtNtCs8WRqiRN7SZr_13identity_iota6tangle13message_index5testsNtB4_4CaseNtNtB8_6traits9TangleRef19previous_message_id
FNDA:0,_RNvMs_NtNtCsapfZL3txtKN_13identity_iota6tangle13message_indexINtB4_12MessageIndexNtNtNtNtB8_3did3doc4diff12DocumentDiffE6insertB8_
FNDA:0,_RNvMs_NtNtCsapfZL3txtKN_13identity_iota6tangle13message_indexINtB4_12MessageIndexNtNtNtNtB8_3did3doc8document8DocumentE6insertB8_
FNDA:0,_RINvMs_NtNtCsapfZL3txtKN_13identity_iota6tangle13message_indexINtB5_12MessageIndexNtNtNtNtB9_3did3doc4diff12DocumentDiffE6extendINtNtNtNtCs4RZURTQcbNt_4core4iter8adapters7flatten7FlatMapINtNtNtB2b_5slice4iter4IterNtNtB7_7message7MessageEINtNtB2b_6option6OptionB1i_ENCNvMNtNtB9_5chain4diffNtB4k_9DiffChain17try_from_messages0EEB9_
FNDA:0,_RINvMNtNtCsapfZL3txtKN_13identity_iota6tangle13message_indexINtB3_12MessageIndexNtNtNtNtB7_3did3doc8document8DocumentE12remove_whereNtNtB5_10message_id9MessageIdNCNvMNtNtB7_5chain4authNtB2E_9AuthChain17try_from_messagess_0EB7_
FNDA:0,_RINvMs_NtNtCsapfZL3txtKN_13identity_iota6tangle13message_indexINtB5_12MessageIndexNtNtNtNtB9_3did3doc8document8DocumentE6extendINtNtNtNtCs4RZURTQcbNt_4core4iter8adapters7flatten7FlatMapINtNtNtB2a_5slice4iter4IterNtNtB7_7message7MessageEINtNtB2a_6option6OptionB1i_ENCNvMNtNtB9_5chain4authNtB4j_9AuthChain17try_from_messages0EEB9_
FNF:6
FNH:0
DA:15,0
DA:36,0
DA:37,0
DA:39,0
DA:41,0
DA:48,0
DA:49,0
DA:51,0
DA:52,0
DA:53,0
DA:54,0
DA:55,0
DA:56,0
DA:58,0
DA:59,0
DA:60,0
DA:61,0
DA:62,0
DA:63,0
DA:64,0
DA:65,0
DA:69,0
DA:70,0
DA:71,0
DA:83,0
DA:84,0
DA:85,0
DA:92,0
DA:93,0
DA:94,0
DA:95,0
DA:96,0
DA:97,0
DA:98,0
DA:99,0
DA:106,0
DA:128,0
DA:129,0
DA:130,0
DA:132,0
DA:133,0
DA:134,0
DA:136,0
DA:137,0
DA:138,0
DA:140,0
DA:141,0
DA:142,0
DA:163,0
DA:164,0
DA:166,0
DA:167,0
DA:168,0
DA:169,0
DA:170,0
DA:171,0
DA:175,0
DA:176,0
DA:177,0
DA:178,0
DA:179,0
DA:180,0
DA:181,0
DA:183,0
DA:184,0
DA:185,0
DA:187,0
DA:188,0
DA:189,0
DA:190,0
DA:191,0
DA:192,0
DA:194,0
DA:195,0
DA:196,0
BRF:0
BFH:0
LF:75
LH:0
end_of_record
SF:identity-iota/src/utils.rs
FN:17,_RNvNtCs8WRqiRN7SZr_13identity_iota5utils8to_tryte
FN:53,_RINvNtCsapfZL3txtKN_13identity_iota5utils14trytes_to_utf8RNtNtCslaFPCg94Pel_5alloc6string6StringEB4_
FN:37,_RINvNtCsapfZL3txtKN_13identity_iota5utils25create_address_from_tritsReEB4_
FN:57,_RNvNtCsapfZL3txtKN_13identity_iota5utils19bundles_from_trytes
FNDA:0,_RNvNtCs8WRqiRN7SZr_13identity_iota5utils8to_tryte
FNDA:0,_RINvNtCsapfZL3txtKN_13identity_iota5utils14trytes_to_utf8RNtNtCslaFPCg94Pel_5alloc6string6StringEB4_
FNDA:0,_RINvNtCsapfZL3txtKN_13identity_iota5utils25create_address_from_tritsReEB4_
FNDA:0,_RNvNtCsapfZL3txtKN_13identity_iota5utils19bundles_from_trytes
FNF:4
FNH:0
DA:17,0
DA:18,0
DA:19,0
DA:20,0
DA:21,0
DA:22,0
DA:23,0
DA:24,0
DA:26,0
DA:27,0
DA:28,0
DA:30,0
DA:31,0
DA:32,0
DA:33,0
DA:34,0
DA:35,0
DA:37,0
DA:38,0
DA:39,0
DA:40,0
DA:41,0
DA:42,0
DA:44,0
DA:45,0
DA:46,0
DA:47,0
DA:53,0
DA:54,0
DA:55,0
DA:57,0
DA:58,0
DA:59,0
DA:60,0
DA:61,0
DA:62,0
DA:63,0
DA:64,0
DA:65,0
DA:66,0
DA:67,0
DA:68,0
DA:70,0
DA:71,0
DA:74,0
DA:75,0
DA:76,0
DA:77,0
DA:78,0
DA:79,0
DA:80,0
DA:82,0
DA:83,0
DA:86,0
DA:89,0
DA:90,0
DA:92,0
DA:93,0
DA:94,0
DA:96,0
DA:97,0
DA:98,0
BRF:0
BFH:0
LF:90
LH:0
end_of_record
